(dp1
S'output'
p2
S''
sS'layer'
p3
S'Framework'
p4
sS'code'
p5
S''
sS'snapshot'
p6
(dp7
S'exception'
p8
(dp9
S'__getslice__'
p10
S"<method-wrapper '__getslice__' of exceptions.NameError object>"
p11
sS'__str__'
p12
S"<method-wrapper '__str__' of exceptions.NameError object>"
p13
sS'__reduce__'
p14
S'<built-in method __reduce__ of exceptions.NameError object>'
p15
sS'__dict__'
p16
S'{}'
p17
sS'message'
p18
S'"name \'layout\' is not defined"'
p19
sS'__sizeof__'
p20
S'<built-in method __sizeof__ of exceptions.NameError object>'
p21
sS'__init__'
p22
S"<method-wrapper '__init__' of exceptions.NameError object>"
p23
sS'__setattr__'
p24
S"<method-wrapper '__setattr__' of exceptions.NameError object>"
p25
sS'__reduce_ex__'
p26
S'<built-in method __reduce_ex__ of exceptions.NameError object>'
p27
sS'__new__'
p28
S'<built-in method __new__ of type object>'
p29
sS'__format__'
p30
S'<built-in method __format__ of exceptions.NameError object>'
p31
sS'__class__'
p32
S"<type 'exceptions.NameError'>"
p33
sS'__doc__'
p34
S"'Name not found globally.'"
p35
sS'__getitem__'
p36
S"<method-wrapper '__getitem__' of exceptions.NameError object>"
p37
sS'__setstate__'
p38
S'<built-in method __setstate__ of exceptions.NameError object>'
p39
sS'__getattribute__'
p40
S"<method-wrapper '__getattribute__' of exceptions.NameError object>"
p41
sS'args'
p42
S'("name \'layout\' is not defined",)'
p43
sS'__subclasshook__'
p44
S'<built-in method __subclasshook__ of type object>'
p45
sS'__unicode__'
p46
S'<built-in method __unicode__ of exceptions.NameError object>'
p47
sS'__delattr__'
p48
S"<method-wrapper '__delattr__' of exceptions.NameError object>"
p49
sS'__repr__'
p50
S"<method-wrapper '__repr__' of exceptions.NameError object>"
p51
sS'__hash__'
p52
S"<method-wrapper '__hash__' of exceptions.NameError object>"
p53
ssS'evalue'
p54
S"name 'layout' is not defined"
p55
sS'request'
p56
cgluon.html
XML_unpickle
p57
(S's\xb4s\x00\x00<div><table><tr><td style="font-weight:bold;vertical-align:top;">ajax</td><td style="vertical-align:top;">:</td><td><div>False</div></td></tr><tr><td style="font-weight:bold;vertical-align:top;">application</td><td style="vertical-align:top;">:</td><td><div>Manish_Project_eComplaint</div></td></tr><tr><td style="font-weight:bold;vertical-align:top;">args</td><td style="vertical-align:top;">:</td><td><div><table></table></div></td></tr><tr><td style="font-weight:bold;vertical-align:top;">cid</td><td style="vertical-align:top;">:</td><td><div>None</div></td></tr><tr><td style="font-weight:bold;vertical-align:top;">client</td><td style="vertical-align:top;">:</td><td><div>127.0.0.1</div></td></tr><tr><td style="font-weight:bold;vertical-align:top;">controller</td><td style="vertical-align:top;">:</td><td><div>default</div></td></tr><tr><td style="font-weight:bold;vertical-align:top;">cookies</td><td style="vertical-align:top;">:</td><td><div><table><tr><td style="font-weight:bold;vertical-align:top;">session_id_admin</td><td style="vertical-align:top;">:</td><td><div>127.0.0.1-097c6ce5-df3a-40c2-a376-bd3ad1f692b8<table><tr><td style="font-weight:bold;vertical-align:top;">comment</td><td style="vertical-align:top;">:</td><td><div></div></td></tr><tr><td style="font-weight:bold;vertical-align:top;">domain</td><td style="vertical-align:top;">:</td><td><div></div></td></tr><tr><td style="font-weight:bold;vertical-align:top;">expires</td><td style="vertical-align:top;">:</td><td><div></div></td></tr><tr><td style="font-weight:bold;vertical-align:top;">httponly</td><td style="vertical-align:top;">:</td><td><div></div></td></tr><tr><td style="font-weight:bold;vertical-align:top;">max-age</td><td style="vertical-align:top;">:</td><td><div></div></td></tr><tr><td style="font-weight:bold;vertical-align:top;">path</td><td style="vertical-align:top;">:</td><td><div></div></td></tr><tr><td style="font-weight:bold;vertical-align:top;">secure</td><td style="vertical-align:top;">:</td><td><div></div></td></tr><tr><td style="font-weight:bold;vertical-align:top;">version</td><td style="vertical-align:top;">:</td><td><div></div></td></tr></table></div></td></tr><tr><td style="font-weight:bold;vertical-align:top;">session_id_manish_project_ecomplaint</td><td style="vertical-align:top;">:</td><td><div>127.0.0.1-3d183a54-8c78-4d36-95a2-b65aeed1d72e<table><tr><td style="font-weight:bold;vertical-align:top;">comment</td><td style="vertical-align:top;">:</td><td><div></div></td></tr><tr><td style="font-weight:bold;vertical-align:top;">domain</td><td style="vertical-align:top;">:</td><td><div></div></td></tr><tr><td style="font-weight:bold;vertical-align:top;">expires</td><td style="vertical-align:top;">:</td><td><div></div></td></tr><tr><td style="font-weight:bold;vertical-align:top;">httponly</td><td style="vertical-align:top;">:</td><td><div></div></td></tr><tr><td style="font-weight:bold;vertical-align:top;">max-age</td><td style="vertical-align:top;">:</td><td><div></div></td></tr><tr><td style="font-weight:bold;vertical-align:top;">path</td><td style="vertical-align:top;">:</td><td><div></div></td></tr><tr><td style="font-weight:bold;vertical-align:top;">secure</td><td style="vertical-align:top;">:</td><td><div></div></td></tr><tr><td style="font-weight:bold;vertical-align:top;">version</td><td style="vertical-align:top;">:</td><td><div></div></td></tr></table></div></td></tr><tr><td style="font-weight:bold;vertical-align:top;">session_id_sharefiles</td><td style="vertical-align:top;">:</td><td><div>127.0.0.1-7f5e9813-2a24-4f8e-80ad-23a6b09d0737<table><tr><td style="font-weight:bold;vertical-align:top;">comment</td><td style="vertical-align:top;">:</td><td><div></div></td></tr><tr><td style="font-weight:bold;vertical-align:top;">domain</td><td style="vertical-align:top;">:</td><td><div></div></td></tr><tr><td style="font-weight:bold;vertical-align:top;">expires</td><td style="vertical-align:top;">:</td><td><div></div></td></tr><tr><td style="font-weight:bold;vertical-align:top;">httponly</td><td style="vertical-align:top;">:</td><td><div></div></td></tr><tr><td style="font-weight:bold;vertical-align:top;">max-age</td><td style="vertical-align:top;">:</td><td><div></div></td></tr><tr><td style="font-weight:bold;vertical-align:top;">path</td><td style="vertical-align:top;">:</td><td><div></div></td></tr><tr><td style="font-weight:bold;vertical-align:top;">secure</td><td style="vertical-align:top;">:</td><td><div></div></td></tr><tr><td style="font-weight:bold;vertical-align:top;">version</td><td style="vertical-align:top;">:</td><td><div></div></td></tr></table></div></td></tr><tr><td style="font-weight:bold;vertical-align:top;">session_id_socialchat</td><td style="vertical-align:top;">:</td><td><div>127.0.0.1-abf895a2-36ec-4274-b56e-e05c211f1d87<table><tr><td style="font-weight:bold;vertical-align:top;">comment</td><td style="vertical-align:top;">:</td><td><div></div></td></tr><tr><td style="font-weight:bold;vertical-align:top;">domain</td><td style="vertical-align:top;">:</td><td><div></div></td></tr><tr><td style="font-weight:bold;vertical-align:top;">expires</td><td style="vertical-align:top;">:</td><td><div></div></td></tr><tr><td style="font-weight:bold;vertical-align:top;">httponly</td><td style="vertical-align:top;">:</td><td><div></div></td></tr><tr><td style="font-weight:bold;vertical-align:top;">max-age</td><td style="vertical-align:top;">:</td><td><div></div></td></tr><tr><td style="font-weight:bold;vertical-align:top;">path</td><td style="vertical-align:top;">:</td><td><div></div></td></tr><tr><td style="font-weight:bold;vertical-align:top;">secure</td><td style="vertical-align:top;">:</td><td><div></div></td></tr><tr><td style="font-weight:bold;vertical-align:top;">version</td><td style="vertical-align:top;">:</td><td><div></div></td></tr></table></div></td></tr><tr><td style="font-weight:bold;vertical-align:top;">session_id_todo</td><td style="vertical-align:top;">:</td><td><div>127.0.0.1-253f0af5-ed89-4ede-bcac-60eaebf5534a<table><tr><td style="font-weight:bold;vertical-align:top;">comment</td><td style="vertical-align:top;">:</td><td><div></div></td></tr><tr><td style="font-weight:bold;vertical-align:top;">domain</td><td style="vertical-align:top;">:</td><td><div></div></td></tr><tr><td style="font-weight:bold;vertical-align:top;">expires</td><td style="vertical-align:top;">:</td><td><div></div></td></tr><tr><td style="font-weight:bold;vertical-align:top;">httponly</td><td style="vertical-align:top;">:</td><td><div></div></td></tr><tr><td style="font-weight:bold;vertical-align:top;">max-age</td><td style="vertical-align:top;">:</td><td><div></div></td></tr><tr><td style="font-weight:bold;vertical-align:top;">path</td><td style="vertical-align:top;">:</td><td><div></div></td></tr><tr><td style="font-weight:bold;vertical-align:top;">secure</td><td style="vertical-align:top;">:</td><td><div></div></td></tr><tr><td style="font-weight:bold;vertical-align:top;">version</td><td style="vertical-align:top;">:</td><td><div></div></td></tr></table></div></td></tr><tr><td style="font-weight:bold;vertical-align:top;">session_id_welcome</td><td style="vertical-align:top;">:</td><td><div>127.0.0.1-2db4b18c-16df-4ca8-b887-d558f16f1760<table><tr><td style="font-weight:bold;vertical-align:top;">comment</td><td style="vertical-align:top;">:</td><td><div></div></td></tr><tr><td style="font-weight:bold;vertical-align:top;">domain</td><td style="vertical-align:top;">:</td><td><div></div></td></tr><tr><td style="font-weight:bold;vertical-align:top;">expires</td><td style="vertical-align:top;">:</td><td><div></div></td></tr><tr><td style="font-weight:bold;vertical-align:top;">httponly</td><td style="vertical-align:top;">:</td><td><div></div></td></tr><tr><td style="font-weight:bold;vertical-align:top;">max-age</td><td style="vertical-align:top;">:</td><td><div></div></td></tr><tr><td style="font-weight:bold;vertical-align:top;">path</td><td style="vertical-align:top;">:</td><td><div></div></td></tr><tr><td style="font-weight:bold;vertical-align:top;">secure</td><td style="vertical-align:top;">:</td><td><div></div></td></tr><tr><td style="font-weight:bold;vertical-align:top;">version</td><td style="vertical-align:top;">:</td><td><div></div></td></tr></table></div></td></tr></table></div></td></tr><tr><td style="font-weight:bold;vertical-align:top;">env</td><td style="vertical-align:top;">:</td><td><div><table><tr><td style="font-weight:bold;vertical-align:top;">HTTP_ACCEPT</td><td style="vertical-align:top;">:</td><td><div>text/html,application/xhtml+xml,application/xml;q=0.9,image/webp,image/apng,*/*;q=0.8</div></td></tr><tr><td style="font-weight:bold;vertical-align:top;">HTTP_ACCEPT_ENCODING</td><td style="vertical-align:top;">:</td><td><div>gzip, deflate, br</div></td></tr><tr><td style="font-weight:bold;vertical-align:top;">HTTP_ACCEPT_LANGUAGE</td><td style="vertical-align:top;">:</td><td><div>en-US,en;q=0.8</div></td></tr><tr><td style="font-weight:bold;vertical-align:top;">HTTP_CACHE_CONTROL</td><td style="vertical-align:top;">:</td><td><div>max-age=0</div></td></tr><tr><td style="font-weight:bold;vertical-align:top;">HTTP_CONNECTION</td><td style="vertical-align:top;">:</td><td><div>keep-alive</div></td></tr><tr><td style="font-weight:bold;vertical-align:top;">HTTP_COOKIE</td><td style="vertical-align:top;">:</td><td><div>session_id_todo=127.0.0.1-253f0af5-ed89-4ede-bcac-60eaebf5534a; session_id_socialchat=127.0.0.1-abf895a2-36ec-4274-b56e-e05c211f1d87; session_id_welcome=127.0.0.1-2db4b18c-16df-4ca8-b887-d558f16f1760; session_id_sharefiles=127.0.0.1-7f5e9813-2a24-4f8e-80ad-23a6b09d0737; session_id_admin=127.0.0.1-097c6ce5-df3a-40c2-a376-bd3ad1f692b8; session_id_manish_project_ecomplaint=127.0.0.1-3d183a54-8c78-4d36-95a2-b65aeed1d72e</div></td></tr><tr><td style="font-weight:bold;vertical-align:top;">HTTP_HOST</td><td style="vertical-align:top;">:</td><td><div>127.0.0.1:8000</div></td></tr><tr><td style="font-weight:bold;vertical-align:top;">HTTP_REFERER</td><td style="vertical-align:top;">:</td><td><div>http://127.0.0.1:8000/Manish_Project_eComplaint/default/user/login</div></td></tr><tr><td style="font-weight:bold;vertical-align:top;">HTTP_UPGRADE_INSECURE_REQUESTS</td><td style="vertical-align:top;">:</td><td><div>1</div></td></tr><tr><td style="font-weight:bold;vertical-align:top;">HTTP_USER_AGENT</td><td style="vertical-align:top;">:</td><td><div>Mozilla/5.0 (Windows NT 10.0; Win64; x64) AppleWebKit/537.36 (KHTML, like Gecko) Chrome/61.0.3163.100 Safari/537.36</div></td></tr><tr><td style="font-weight:bold;vertical-align:top;">PATH_INFO</td><td style="vertical-align:top;">:</td><td><div>/Manish_Project_eComplaint/default/homepage</div></td></tr><tr><td style="font-weight:bold;vertical-align:top;">QUERY_STRING</td><td style="vertical-align:top;">:</td><td><div></div></td></tr><tr><td style="font-weight:bold;vertical-align:top;">REMOTE_ADDR</td><td style="vertical-align:top;">:</td><td><div>127.0.0.1</div></td></tr><tr><td style="font-weight:bold;vertical-align:top;">REMOTE_PORT</td><td style="vertical-align:top;">:</td><td><div>49582</div></td></tr><tr><td style="font-weight:bold;vertical-align:top;">REQUEST_METHOD</td><td style="vertical-align:top;">:</td><td><div>GET</div></td></tr><tr><td style="font-weight:bold;vertical-align:top;">SCRIPT_NAME</td><td style="vertical-align:top;">:</td><td><div></div></td></tr><tr><td style="font-weight:bold;vertical-align:top;">SERVER_NAME</td><td style="vertical-align:top;">:</td><td><div>ManishLaptop</div></td></tr><tr><td style="font-weight:bold;vertical-align:top;">SERVER_PORT</td><td style="vertical-align:top;">:</td><td><div>8000</div></td></tr><tr><td style="font-weight:bold;vertical-align:top;">SERVER_PROTOCOL</td><td style="vertical-align:top;">:</td><td><div>HTTP/1.1</div></td></tr><tr><td style="font-weight:bold;vertical-align:top;">SERVER_SOFTWARE</td><td style="vertical-align:top;">:</td><td><div>Rocket 1.2.6</div></td></tr><tr><td style="font-weight:bold;vertical-align:top;">app_folders</td><td style="vertical-align:top;">:</td><td><div>set([&#x27;C:\\\\Users\\\\Manish Singh\\\\PycharmProjects\\\\ManishProject\\\\web2py\\\\applications\\\\Manish_Project_eComplaint\\\\&#x27;, &#x27;C:\\\\Users\\\\Manish Singh\\\\PycharmProjects\\\\ManishProject\\\\web2py\\\\applications\\\\welcome\\\\&#x27;, &#x27;C:\\\\Users\\\\Manish Singh\\\\PycharmProjects\\\\ManishProject\\\\web2py\\\\applications\\\\admin\\\\&#x27;, &#x27;C:\\\\Users\\\\Manish Singh\\\\PycharmProjects\\\\ManishProject\\\\web2py\\\\applications\\\\Sharefiles\\\\&#x27;])</div></td></tr><tr><td style="font-weight:bold;vertical-align:top;">applications_parent</td><td style="vertical-align:top;">:</td><td><div>C:\\Users\\Manish Singh\\PycharmProjects\\ManishProject\\web2py</div></td></tr><tr><td style="font-weight:bold;vertical-align:top;">cmd_args</td><td style="vertical-align:top;">:</td><td><div><table></table></div></td></tr><tr><td style="font-weight:bold;vertical-align:top;">cmd_options</td><td style="vertical-align:top;">:</td><td><div>&lt;Values at 0x3632148: {&#x27;verbose&#x27;: False, &#x27;ip&#x27;: &#x27;127.0.0.1&#x27;, &#x27;debuglevel&#x27;: 30, &#x27;with_scheduler&#x27;: False, &#x27;shutdown_timeout&#x27;: 5, &#x27;taskbar&#x27;: False, &#x27;with_coverage&#x27;: False, &#x27;pid_filename&#x27;: &#x27;httpserver.pid&#x27;, &#x27;maxthreads&#x27;: None, &#x27;softcron&#x27;: False, &#x27;server_name&#x27;: &#x27;ManishLaptop&#x27;, &#x27;bpython&#x27;: False, &#x27;nogui&#x27;: False, &#x27;port&#x27;: 8000, &#x27;print_errors&#x27;: False, &#x27;extcron&#x27;: False, &#x27;runcron&#x27;: False, &#x27;run_system_tests&#x27;: False, &#x27;test&#x27;: None, &#x27;folder&#x27;: &#x27;C:\\\\Users\\\\Manish Singh\\\\PycharmProjects\\\\ManishProject\\\\web2py&#x27;, &#x27;config&#x27;: &#x27;&#x27;, &#x27;minthreads&#x27;: None, &#x27;shell&#x27;: None, &#x27;run&#x27;: &#x27;&#x27;, &#x27;log_filename&#x27;: &#x27;httpserver.log&#x27;, &#x27;profiler_dir&#x27;: None, &#x27;args&#x27;: [&#x27;&#x27;], &#x27;socket_timeout&#x27;: 5, &#x27;ssl_ca_certificate&#x27;: None, &#x27;scheduler&#x27;: None, &#x27;interfaces&#x27;: None, &#x27;ssl_private_key&#x27;: &#x27;&#x27;, &#x27;gae&#x27;: None, &#x27;password&#x27;: &#x27;******&#x27;, &#x27;request_queue_size&#x27;: 5, &#x27;ssl_certificate&#x27;: &#x27;&#x27;, &#x27;cronjob&#x27;: False, &#x27;numthreads&#x27;: None, &#x27;quiet&#x27;: False, &#x27;import_models&#x27;: False, &#x27;timeout&#x27;: 10, &#x27;plain&#x27;: False, &#x27;nobanner&#x27;: False}&gt;</div></td></tr><tr><td style="font-weight:bold;vertical-align:top;">db_sessions</td><td style="vertical-align:top;">:</td><td><div>set([])</div></td></tr><tr><td style="font-weight:bold;vertical-align:top;">debugging</td><td style="vertical-align:top;">:</td><td><div>True</div></td></tr><tr><td style="font-weight:bold;vertical-align:top;">gluon_parent</td><td style="vertical-align:top;">:</td><td><div>C:\\Users\\Manish Singh\\PycharmProjects\\ManishProject\\web2py</div></td></tr><tr><td style="font-weight:bold;vertical-align:top;">http_accept</td><td style="vertical-align:top;">:</td><td><div>text/html,application/xhtml+xml,application/xml;q=0.9,image/webp,image/apng,*/*;q=0.8</div></td></tr><tr><td style="font-weight:bold;vertical-align:top;">http_accept_encoding</td><td style="vertical-align:top;">:</td><td><div>gzip, deflate, br</div></td></tr><tr><td style="font-weight:bold;vertical-align:top;">http_accept_language</td><td style="vertical-align:top;">:</td><td><div>en-US,en;q=0.8</div></td></tr><tr><td style="font-weight:bold;vertical-align:top;">http_cache_control</td><td style="vertical-align:top;">:</td><td><div>max-age=0</div></td></tr><tr><td style="font-weight:bold;vertical-align:top;">http_connection</td><td style="vertical-align:top;">:</td><td><div>keep-alive</div></td></tr><tr><td style="font-weight:bold;vertical-align:top;">http_cookie</td><td style="vertical-align:top;">:</td><td><div>session_id_todo=127.0.0.1-253f0af5-ed89-4ede-bcac-60eaebf5534a; session_id_socialchat=127.0.0.1-abf895a2-36ec-4274-b56e-e05c211f1d87; session_id_welcome=127.0.0.1-2db4b18c-16df-4ca8-b887-d558f16f1760; session_id_sharefiles=127.0.0.1-7f5e9813-2a24-4f8e-80ad-23a6b09d0737; session_id_admin=127.0.0.1-097c6ce5-df3a-40c2-a376-bd3ad1f692b8; session_id_manish_project_ecomplaint=127.0.0.1-3d183a54-8c78-4d36-95a2-b65aeed1d72e</div></td></tr><tr><td style="font-weight:bold;vertical-align:top;">http_host</td><td style="vertical-align:top;">:</td><td><div>127.0.0.1:8000</div></td></tr><tr><td style="font-weight:bold;vertical-align:top;">http_referer</td><td style="vertical-align:top;">:</td><td><div>http://127.0.0.1:8000/Manish_Project_eComplaint/default/user/login</div></td></tr><tr><td style="font-weight:bold;vertical-align:top;">http_upgrade_insecure_requests</td><td style="vertical-align:top;">:</td><td><div>1</div></td></tr><tr><td style="font-weight:bold;vertical-align:top;">http_user_agent</td><td style="vertical-align:top;">:</td><td><div>Mozilla/5.0 (Windows NT 10.0; Win64; x64) AppleWebKit/537.36 (KHTML, like Gecko) Chrome/61.0.3163.100 Safari/537.36</div></td></tr><tr><td style="font-weight:bold;vertical-align:top;">is_jython</td><td style="vertical-align:top;">:</td><td><div>False</div></td></tr><tr><td style="font-weight:bold;vertical-align:top;">is_py2</td><td style="vertical-align:top;">:</td><td><div>True</div></td></tr><tr><td style="font-weight:bold;vertical-align:top;">is_pypy</td><td style="vertical-align:top;">:</td><td><div>False</div></td></tr><tr><td style="font-weight:bold;vertical-align:top;">is_source</td><td style="vertical-align:top;">:</td><td><div>True</div></td></tr><tr><td style="font-weight:bold;vertical-align:top;">local_hosts</td><td style="vertical-align:top;">:</td><td><div><table><tr><td><div>ManishLaptop</div></td></tr><tr><td><div>10.0.0.89</div></td></tr><tr><td><div>2601:241:8301:1097::8369</div></td></tr><tr><td><div>ManishLaptop.hsd1.il.comcast.net</div></td></tr><tr><td><div>2601:241:8301:1097:5c61:c182:70fe:597f</div></td></tr><tr><td><div>::ffff:127.0.0.1</div></td></tr><tr><td><div>::1</div></td></tr><tr><td><div>fe80::5c61:c182:70fe:597f%40</div></td></tr><tr><td><div>2601:241:8301:1097:ad98:1e6:bb2e:e870</div></td></tr><tr><td><div>127.0.0.1</div></td></tr></table></div></td></tr><tr><td style="font-weight:bold;vertical-align:top;">path_info</td><td style="vertical-align:top;">:</td><td><div>/Manish_Project_eComplaint/default/homepage</div></td></tr><tr><td style="font-weight:bold;vertical-align:top;">query_string</td><td style="vertical-align:top;">:</td><td><div></div></td></tr><tr><td style="font-weight:bold;vertical-align:top;">remote_addr</td><td style="vertical-align:top;">:</td><td><div>127.0.0.1</div></td></tr><tr><td style="font-weight:bold;vertical-align:top;">remote_port</td><td style="vertical-align:top;">:</td><td><div>49582</div></td></tr><tr><td style="font-weight:bold;vertical-align:top;">request_method</td><td style="vertical-align:top;">:</td><td><div>GET</div></td></tr><tr><td style="font-weight:bold;vertical-align:top;">request_uri</td><td style="vertical-align:top;">:</td><td><div>/Manish_Project_eComplaint/default/homepage</div></td></tr><tr><td style="font-weight:bold;vertical-align:top;">script_name</td><td style="vertical-align:top;">:</td><td><div></div></td></tr><tr><td style="font-weight:bold;vertical-align:top;">server_name</td><td style="vertical-align:top;">:</td><td><div>ManishLaptop</div></td></tr><tr><td style="font-weight:bold;vertical-align:top;">server_port</td><td style="vertical-align:top;">:</td><td><div>8000</div></td></tr><tr><td style="font-weight:bold;vertical-align:top;">server_protocol</td><td style="vertical-align:top;">:</td><td><div>HTTP/1.1</div></td></tr><tr><td style="font-weight:bold;vertical-align:top;">server_software</td><td style="vertical-align:top;">:</td><td><div>Rocket 1.2.6</div></td></tr><tr><td style="font-weight:bold;vertical-align:top;">web2py_path</td><td style="vertical-align:top;">:</td><td><div>C:\\Users\\Manish Singh\\PycharmProjects\\ManishProject\\web2py</div></td></tr><tr><td style="font-weight:bold;vertical-align:top;">web2py_version</td><td style="vertical-align:top;">:</td><td><div>2.15.4-stable+timestamp.2017.09.02.04.02.22</div></td></tr><tr><td style="font-weight:bold;vertical-align:top;">wsgi.errors</td><td style="vertical-align:top;">:</td><td><div>&lt;open file &#x27;&lt;stderr&gt;&#x27;, mode &#x27;w&#x27; at 0x0266D0D0&gt;</div></td></tr><tr><td style="font-weight:bold;vertical-align:top;">wsgi.file_wrapper</td><td style="vertical-align:top;">:</td><td><div>&lt;class wsgiref.util.FileWrapper at 0x035F8180&gt;</div></td></tr><tr><td style="font-weight:bold;vertical-align:top;">wsgi.input</td><td style="vertical-align:top;">:</td><td><div>&lt;socket._fileobject object at 0x0AE76B70&gt;</div></td></tr><tr><td style="font-weight:bold;vertical-align:top;">wsgi.multiprocess</td><td style="vertical-align:top;">:</td><td><div>False</div></td></tr><tr><td style="font-weight:bold;vertical-align:top;">wsgi.multithread</td><td style="vertical-align:top;">:</td><td><div>True</div></td></tr><tr><td style="font-weight:bold;vertical-align:top;">wsgi.run_once</td><td style="vertical-align:top;">:</td><td><div>False</div></td></tr><tr><td style="font-weight:bold;vertical-align:top;">wsgi.url_scheme</td><td style="vertical-align:top;">:</td><td><div>http</div></td></tr><tr><td style="font-weight:bold;vertical-align:top;">wsgi.version</td><td style="vertical-align:top;">:</td><td><div><table><tr><td><div>1</div></td></tr><tr><td><div>0</div></td></tr></table></div></td></tr><tr><td style="font-weight:bold;vertical-align:top;">wsgi_errors</td><td style="vertical-align:top;">:</td><td><div>&lt;open file &#x27;&lt;stderr&gt;&#x27;, mode &#x27;w&#x27; at 0x0266D0D0&gt;</div></td></tr><tr><td style="font-weight:bold;vertical-align:top;">wsgi_file_wrapper</td><td style="vertical-align:top;">:</td><td><div>&lt;class wsgiref.util.FileWrapper at 0x035F8180&gt;</div></td></tr><tr><td style="font-weight:bold;vertical-align:top;">wsgi_input</td><td style="vertical-align:top;">:</td><td><div>&lt;socket._fileobject object at 0x0AE76B70&gt;</div></td></tr><tr><td style="font-weight:bold;vertical-align:top;">wsgi_multiprocess</td><td style="vertical-align:top;">:</td><td><div>False</div></td></tr><tr><td style="font-weight:bold;vertical-align:top;">wsgi_multithread</td><td style="vertical-align:top;">:</td><td><div>True</div></td></tr><tr><td style="font-weight:bold;vertical-align:top;">wsgi_run_once</td><td style="vertical-align:top;">:</td><td><div>False</div></td></tr><tr><td style="font-weight:bold;vertical-align:top;">wsgi_url_scheme</td><td style="vertical-align:top;">:</td><td><div>http</div></td></tr><tr><td style="font-weight:bold;vertical-align:top;">wsgi_version</td><td style="vertical-align:top;">:</td><td><div><table><tr><td><div>1</div></td></tr><tr><td><div>0</div></td></tr></table></div></td></tr></table></div></td></tr><tr><td style="font-weight:bold;vertical-align:top;">extension</td><td style="vertical-align:top;">:</td><td><div>html</div></td></tr><tr><td style="font-weight:bold;vertical-align:top;">folder</td><td style="vertical-align:top;">:</td><td><div>C:\\Users\\Manish Singh\\PycharmProjects\\ManishProject\\web2py\\applications\\Manish_Project_eComplaint\\</div></td></tr><tr><td style="font-weight:bold;vertical-align:top;">function</td><td style="vertical-align:top;">:</td><td><div>homepage</div></td></tr><tr><td style="font-weight:bold;vertical-align:top;">global_settings</td><td style="vertical-align:top;">:</td><td><div><table><tr><td style="font-weight:bold;vertical-align:top;">app_folders</td><td style="vertical-align:top;">:</td><td><div>set([&#x27;C:\\\\Users\\\\Manish Singh\\\\PycharmProjects\\\\ManishProject\\\\web2py\\\\applications\\\\Manish_Project_eComplaint\\\\&#x27;, &#x27;C:\\\\Users\\\\Manish Singh\\\\PycharmProjects\\\\ManishProject\\\\web2py\\\\applications\\\\welcome\\\\&#x27;, &#x27;C:\\\\Users\\\\Manish Singh\\\\PycharmProjects\\\\ManishProject\\\\web2py\\\\applications\\\\admin\\\\&#x27;, &#x27;C:\\\\Users\\\\Manish Singh\\\\PycharmProjects\\\\ManishProject\\\\web2py\\\\applications\\\\Sharefiles\\\\&#x27;])</div></td></tr><tr><td style="font-weight:bold;vertical-align:top;">applications_parent</td><td style="vertical-align:top;">:</td><td><div>C:\\Users\\Manish Singh\\PycharmProjects\\ManishProject\\web2py</div></td></tr><tr><td style="font-weight:bold;vertical-align:top;">cmd_args</td><td style="vertical-align:top;">:</td><td><div><table></table></div></td></tr><tr><td style="font-weight:bold;vertical-align:top;">cmd_options</td><td style="vertical-align:top;">:</td><td><div>&lt;Values at 0x3632148: {&#x27;verbose&#x27;: False, &#x27;ip&#x27;: &#x27;127.0.0.1&#x27;, &#x27;debuglevel&#x27;: 30, &#x27;with_scheduler&#x27;: False, &#x27;shutdown_timeout&#x27;: 5, &#x27;taskbar&#x27;: False, &#x27;with_coverage&#x27;: False, &#x27;pid_filename&#x27;: &#x27;httpserver.pid&#x27;, &#x27;maxthreads&#x27;: None, &#x27;softcron&#x27;: False, &#x27;server_name&#x27;: &#x27;ManishLaptop&#x27;, &#x27;bpython&#x27;: False, &#x27;nogui&#x27;: False, &#x27;port&#x27;: 8000, &#x27;print_errors&#x27;: False, &#x27;extcron&#x27;: False, &#x27;runcron&#x27;: False, &#x27;run_system_tests&#x27;: False, &#x27;test&#x27;: None, &#x27;folder&#x27;: &#x27;C:\\\\Users\\\\Manish Singh\\\\PycharmProjects\\\\ManishProject\\\\web2py&#x27;, &#x27;config&#x27;: &#x27;&#x27;, &#x27;minthreads&#x27;: None, &#x27;shell&#x27;: None, &#x27;run&#x27;: &#x27;&#x27;, &#x27;log_filename&#x27;: &#x27;httpserver.log&#x27;, &#x27;profiler_dir&#x27;: None, &#x27;args&#x27;: [&#x27;&#x27;], &#x27;socket_timeout&#x27;: 5, &#x27;ssl_ca_certificate&#x27;: None, &#x27;scheduler&#x27;: None, &#x27;interfaces&#x27;: None, &#x27;ssl_private_key&#x27;: &#x27;&#x27;, &#x27;gae&#x27;: None, &#x27;password&#x27;: &#x27;******&#x27;, &#x27;request_queue_size&#x27;: 5, &#x27;ssl_certificate&#x27;: &#x27;&#x27;, &#x27;cronjob&#x27;: False, &#x27;numthreads&#x27;: None, &#x27;quiet&#x27;: False, &#x27;import_models&#x27;: False, &#x27;timeout&#x27;: 10, &#x27;plain&#x27;: False, &#x27;nobanner&#x27;: False}&gt;</div></td></tr><tr><td style="font-weight:bold;vertical-align:top;">db_sessions</td><td style="vertical-align:top;">:</td><td><div>set([])</div></td></tr><tr><td style="font-weight:bold;vertical-align:top;">debugging</td><td style="vertical-align:top;">:</td><td><div>True</div></td></tr><tr><td style="font-weight:bold;vertical-align:top;">gluon_parent</td><td style="vertical-align:top;">:</td><td><div>C:\\Users\\Manish Singh\\PycharmProjects\\ManishProject\\web2py</div></td></tr><tr><td style="font-weight:bold;vertical-align:top;">is_jython</td><td style="vertical-align:top;">:</td><td><div>False</div></td></tr><tr><td style="font-weight:bold;vertical-align:top;">is_py2</td><td style="vertical-align:top;">:</td><td><div>True</div></td></tr><tr><td style="font-weight:bold;vertical-align:top;">is_pypy</td><td style="vertical-align:top;">:</td><td><div>False</div></td></tr><tr><td style="font-weight:bold;vertical-align:top;">is_source</td><td style="vertical-align:top;">:</td><td><div>True</div></td></tr><tr><td style="font-weight:bold;vertical-align:top;">local_hosts</td><td style="vertical-align:top;">:</td><td><div><table><tr><td><div>ManishLaptop</div></td></tr><tr><td><div>10.0.0.89</div></td></tr><tr><td><div>2601:241:8301:1097::8369</div></td></tr><tr><td><div>ManishLaptop.hsd1.il.comcast.net</div></td></tr><tr><td><div>2601:241:8301:1097:5c61:c182:70fe:597f</div></td></tr><tr><td><div>::ffff:127.0.0.1</div></td></tr><tr><td><div>::1</div></td></tr><tr><td><div>fe80::5c61:c182:70fe:597f%40</div></td></tr><tr><td><div>2601:241:8301:1097:ad98:1e6:bb2e:e870</div></td></tr><tr><td><div>127.0.0.1</div></td></tr></table></div></td></tr><tr><td style="font-weight:bold;vertical-align:top;">web2py_version</td><td style="vertical-align:top;">:</td><td><div>2.15.4-stable+timestamp.2017.09.02.04.02.22</div></td></tr></table></div></td></tr><tr><td style="font-weight:bold;vertical-align:top;">is_https</td><td style="vertical-align:top;">:</td><td><div>False</div></td></tr><tr><td style="font-weight:bold;vertical-align:top;">is_local</td><td style="vertical-align:top;">:</td><td><div>True</div></td></tr><tr><td style="font-weight:bold;vertical-align:top;">is_restful</td><td style="vertical-align:top;">:</td><td><div>False</div></td></tr><tr><td style="font-weight:bold;vertical-align:top;">is_scheduler</td><td style="vertical-align:top;">:</td><td><div>False</div></td></tr><tr><td style="font-weight:bold;vertical-align:top;">is_shell</td><td style="vertical-align:top;">:</td><td><div>False</div></td></tr><tr><td style="font-weight:bold;vertical-align:top;">now</td><td style="vertical-align:top;">:</td><td><div>datetime.datetime(2017, 11, 12, 19, 25, 16, 511000)</div></td></tr><tr><td style="font-weight:bold;vertical-align:top;">raw_args</td><td style="vertical-align:top;">:</td><td><div></div></td></tr><tr><td style="font-weight:bold;vertical-align:top;">raw_extension</td><td style="vertical-align:top;">:</td><td><div>None</div></td></tr><tr><td style="font-weight:bold;vertical-align:top;">url</td><td style="vertical-align:top;">:</td><td><div>/Manish_Project_eComplaint/default/homepage</div></td></tr><tr><td style="font-weight:bold;vertical-align:top;">utcnow</td><td style="vertical-align:top;">:</td><td><div>datetime.datetime(2017, 11, 13, 1, 25, 16, 511000)</div></td></tr><tr><td style="font-weight:bold;vertical-align:top;">wsgi</td><td style="vertical-align:top;">:</td><td><div>&lt;gluon.main.LazyWSGI object at 0x0B6125F0&gt;</div></td></tr></table></div>'
tRp58
sS'frames'
p59
(lp60
(dp61
S'file'
p62
S'C:\\Users\\Manish Singh\\PycharmProjects\\ManishProject\\web2py\\gluon\\main.py'
p63
sS'dump'
p64
(dp65
S'global serve_controller'
p66
S'<function serve_controller>'
p67
sS'session'
p68
S"<Storage {'_formkey[policeman/create]': ['bae2ac...2ad6d', '49f3d8b4-0945-4fac-b8ef-1c3aee3e0abb']}>"
p69
sS'request'
p70
S"<Storage {'_vars': <Storage {}>, 'function': 'ho...2py\\\\applications\\\\Manish_Project_eComplaint\\\\'}>"
p71
sS'response'
p72
S"<Storage {'body': <cStringIO.StringO object at 0...at 0x0A58F670>, 'view': 'default/homepage.html'}>"
p73
ssS'lnum'
p74
I445
sS'lines'
p75
(dp76
I448
S''
sI449
S'                if static_file:'
p77
sI440
S'                if global_settings.debugging and app != "admin":'
p78
sI441
S'                    import gluon.debug'
p79
sI442
S'                    # activate the debugger'
p80
sI443
S'                    gluon.debug.dbg.do_debug(mainpyfile=request.folder)'
p81
sI444
S''
sI445
S'                serve_controller(request, response, session)'
p82
sI446
S'            except HTTP as hr:'
p83
sI447
S'                http_response = hr'
p84
ssS'call'
p85
S"(environ={'HTTP_ACCEPT': 'text/html,application/xhtml+xml,application/xml;q=0.9,image/webp,image/apng,*/*;q=0.8', 'HTTP_ACCEPT_ENCODING': 'gzip, deflate, br', 'HTTP_ACCEPT_LANGUAGE': 'en-US,en;q=0.8', 'HTTP_CACHE_CONTROL': 'max-age=0', 'HTTP_CONNECTION': 'keep-alive', 'HTTP_COOKIE': 'session_id_todo=127.0.0.1-253f0af5-ed89-4ede-bca...nt=127.0.0.1-3d183a54-8c78-4d36-95a2-b65aeed1d72e', 'HTTP_HOST': '127.0.0.1:8000', 'HTTP_REFERER': 'http://127.0.0.1:8000/Manish_Project_eComplaint/default/user/login', 'HTTP_UPGRADE_INSECURE_REQUESTS': '1', 'HTTP_USER_AGENT': 'Mozilla/5.0 (Windows NT 10.0; Win64; x64) AppleW...L, like Gecko) Chrome/61.0.3163.100 Safari/537.36', ...}, responder=<function responder2>)"
p86
sS'func'
p87
S'wsgibase'
p88
sa(dp89
g62
S'C:\\Users\\Manish Singh\\PycharmProjects\\ManishProject\\web2py\\gluon\\main.py'
p90
sg64
(dp91
S'response._view_environment'
p92
S"{'A': <class 'gluon.html.A'>, 'ANY_OF': <class 'gluon.validators.ANY_OF'>, 'ASSIGNJS': <function ASSIGNJS>, 'Auth': <class 'gluon.tools.Auth'>, 'B': <class 'gluon.html.B'>, 'BEAUTIFY': <class 'gluon.html.BEAUTIFY'>, 'BODY': <class 'gluon.html.BODY'>, 'BR': <class 'gluon.html.BR'>, 'BUTTON': <class 'gluon.html.BUTTON'>, 'CAT': <class 'gluon.html.CAT'>, ...}"
p93
sS'page'
p94
S"{'form': <gluon.sqlhtml.SQLFORM object>}"
p95
sS'global run_view_in'
p96
S'<function run_view_in>'
p97
sS'response'
p98
S"<Storage {'body': <cStringIO.StringO object at 0...at 0x0A58F670>, 'view': 'default/homepage.html'}>"
p99
ssg74
I184
sg75
(dp100
I179
S'    response._view_environment = copy.copy(environment)'
p101
sI180
S'    page = run_controller_in(request.controller, request.function, environment)'
p102
sI181
S'    if isinstance(page, dict):'
p103
sI182
S'        response._vars = page'
p104
sI183
S'        response._view_environment.update(page)'
p105
sI184
S'        page = run_view_in(response._view_environment)'
p106
sI185
S''
sI186
S'    # logic to garbage collect after exec, not always, once every 100 requests'
p107
sI187
S'    global requests'
p108
sI188
S"    requests = ('requests' in globals()) and (requests + 1) % 100 or 0"
p109
ssg85
S"(request=<Storage {'_vars': <Storage {}>, 'function': 'ho...2py\\\\applications\\\\Manish_Project_eComplaint\\\\'}>, response=<Storage {'body': <cStringIO.StringO object at 0...at 0x0A58F670>, 'view': 'default/homepage.html'}>, session=<Storage {'_formkey[policeman/create]': ['bae2ac...2ad6d', '49f3d8b4-0945-4fac-b8ef-1c3aee3e0abb']}>)"
p110
sg87
S'serve_controller'
p111
sa(dp112
g62
S'C:\\Users\\Manish Singh\\PycharmProjects\\ManishProject\\web2py\\gluon\\compileapp.py'
p113
sg64
(dp114
S'environment'
p115
S"{'A': <class 'gluon.html.A'>, 'ANY_OF': <class 'gluon.validators.ANY_OF'>, 'ASSIGNJS': <function ASSIGNJS>, 'Auth': <class 'gluon.tools.Auth'>, 'B': <class 'gluon.html.B'>, 'BEAUTIFY': <class 'gluon.html.BEAUTIFY'>, 'BODY': <class 'gluon.html.BODY'>, 'BR': <class 'gluon.html.BR'>, 'BUTTON': <class 'gluon.html.BUTTON'>, 'CAT': <class 'gluon.html.CAT'>, ...}"
p116
sS'context'
p117
S'undefined'
p118
ssg74
I725
sg75
(dp119
I720
S'        # if the view is not compiled'
p120
sI721
S'        if not layer:'
p121
sI722
S'            # Parse template'
p122
sI723
S'            scode = parse_template(view,'
p123
sI724
S"                                   pjoin(folder, 'views'),"
p124
sI725
S'                                   context=environment)'
p125
sI726
S'            # Compile template'
p126
sI727
S'            ccode = compile2(scode, filename)'
p127
sI728
S'        layer = filename'
p128
sI729
S'    restricted(ccode, environment, layer=layer, scode=scode)'
p129
ssg85
S"(environment={'A': <class 'gluon.html.A'>, 'ANY_OF': <class 'gluon.validators.ANY_OF'>, 'ASSIGNJS': <function ASSIGNJS>, 'Auth': <class 'gluon.tools.Auth'>, 'B': <class 'gluon.html.B'>, 'BEAUTIFY': <class 'gluon.html.BEAUTIFY'>, 'BODY': <class 'gluon.html.BODY'>, 'BR': <class 'gluon.html.BR'>, 'BUTTON': <class 'gluon.html.BUTTON'>, 'CAT': <class 'gluon.html.CAT'>, ...})"
p130
sg87
S'run_view_in'
p131
sa(dp132
g62
S'C:\\Users\\Manish Singh\\PycharmProjects\\ManishProject\\web2py\\gluon\\template.py'
p133
sg64
(dp134
S'builtinstr'
p135
S"<type 'str'>"
p136
sS'global TemplateParser'
p137
S"<class 'gluon.template.TemplateParser'>"
p138
sS'delimiters'
p139
S"('{{', '}}')"
p140
sS'context'
p141
S"{'A': <class 'gluon.html.A'>, 'ANY_OF': <class 'gluon.validators.ANY_OF'>, 'ASSIGNJS': <function ASSIGNJS>, 'Auth': <class 'gluon.tools.Auth'>, 'B': <class 'gluon.html.B'>, 'BEAUTIFY': <class 'gluon.html.BEAUTIFY'>, 'BODY': <class 'gluon.html.BODY'>, 'BR': <class 'gluon.html.BR'>, 'BUTTON': <class 'gluon.html.BUTTON'>, 'CAT': <class 'gluon.html.CAT'>, ...}"
p142
sS'text'
p143
S"'{{extend layout.html}}\\r\\n\\r\\n<!DOCTYPE html>\\r\\n<html...page</title>\\r\\n</head>\\r\\n<body>\\r\\n\\r\\n</body>\\r\\n</html>'"
p144
sS'path'
p145
S"r'C:\\Users\\Manish Singh\\PycharmProjects\\ManishProj...b2py\\applications\\Manish_Project_eComplaint\\views'"
p146
sS'lexers'
p147
g17
ssg74
I792
sg75
(dp148
I787
S"            raise RestrictedError(filename, '', 'Unable to find the file')"
p149
sI788
S'    else:'
p150
sI789
S'        text = filename.read()'
p151
sI790
S'    text = to_native(text)'
p152
sI791
S'    # Use the file contents to get a parsed template and return it.'
p153
sI792
S'    return str(TemplateParser(text, context=context, path=path, lexers=lexers, delimiters=delimiters))'
p154
sI793
S''
sI794
S''
sI795
S'def get_parsed(text):'
p155
sI796
S'    """'
p156
ssg85
S"(filename='default/homepage.html', path=r'C:\\Users\\Manish Singh\\PycharmProjects\\ManishProj...b2py\\applications\\Manish_Project_eComplaint\\views', context={'A': <class 'gluon.html.A'>, 'ANY_OF': <class 'gluon.validators.ANY_OF'>, 'ASSIGNJS': <function ASSIGNJS>, 'Auth': <class 'gluon.tools.Auth'>, 'B': <class 'gluon.html.B'>, 'BEAUTIFY': <class 'gluon.html.BEAUTIFY'>, 'BODY': <class 'gluon.html.BODY'>, 'BR': <class 'gluon.html.BR'>, 'BUTTON': <class 'gluon.html.BUTTON'>, 'CAT': <class 'gluon.html.CAT'>, ...}, lexers={}, delimiters=('{{', '}}'))"
p157
sg87
S'parse_template'
p158
sa(dp159
g62
S'C:\\Users\\Manish Singh\\PycharmProjects\\ManishProject\\web2py\\gluon\\template.py'
p160
sg64
(dp161
S'text'
p162
S"'{{extend layout.html}}\\r\\n\\r\\n<!DOCTYPE html>\\r\\n<html...page</title>\\r\\n</head>\\r\\n<body>\\r\\n\\r\\n</body>\\r\\n</html>'"
p163
sS'self'
p164
S'<gluon.template.TemplateParser object>'
p165
sS'self.parse'
p166
S'<bound method TemplateParser.parse of <gluon.template.TemplateParser object>>'
p167
ssg74
I314
sg75
(dp168
I309
S'        # This variable will hold a reference to every block'
p169
sI310
S'        # that we come across in this template'
p170
sI311
S'        self.blocks = {}'
p171
sI312
S''
sI313
S'        # Begin parsing.'
p172
sI314
S'        self.parse(text)'
p173
sI315
S''
sI316
S'    def to_string(self):'
p174
sI317
S'        """'
p175
sI318
S'        Returns the parsed template with correct indentation.'
p176
ssg85
S"(self=<gluon.template.TemplateParser object>, text='{{extend layout.html}}\\r\\n\\r\\n<!DOCTYPE html>\\r\\n<html...page</title>\\r\\n</head>\\r\\n<body>\\r\\n\\r\\n</body>\\r\\n</html>', name='ParserContainer', context={'A': <class 'gluon.html.A'>, 'ANY_OF': <class 'gluon.validators.ANY_OF'>, 'ASSIGNJS': <function ASSIGNJS>, 'Auth': <class 'gluon.tools.Auth'>, 'B': <class 'gluon.html.B'>, 'BEAUTIFY': <class 'gluon.html.BEAUTIFY'>, 'BODY': <class 'gluon.html.BODY'>, 'BR': <class 'gluon.html.BR'>, 'BUTTON': <class 'gluon.html.BUTTON'>, 'CAT': <class 'gluon.html.CAT'>, ...}, path=r'C:\\Users\\Manish Singh\\PycharmProjects\\ManishProj...b2py\\applications\\Manish_Project_eComplaint\\views', writer='response.write', lexers={}, delimiters=('{{', '}}'), _super_nodes=[])"
p177
sg87
g22
sa(dp178
g62
S'C:\\Users\\Manish Singh\\PycharmProjects\\ManishProject\\web2py\\gluon\\template.py'
p179
sg64
(dp180
S'self'
p181
S'<gluon.template.TemplateParser object>'
p182
sS'extend'
p183
S"'layout.html'"
p184
sS'self.extend'
p185
S'<bound method TemplateParser.extend of <gluon.template.TemplateParser object>>'
p186
ssg74
I760
sg75
(dp187
I755
S'            # Sometimes I miss C-Style pointers... I want my asterisk...'
p188
sI756
S'            self.child_super_nodes.remove(node)'
p189
sI757
S''
sI758
S'        # If we need to extend a template.'
p190
sI759
S'        if extend:'
p191
sI760
S'            self.extend(extend)'
p192
sI761
S''
sI762
S'# We need this for integration with gluon'
p193
sI763
S''
sI764
S''
ssg85
S"(self=<gluon.template.TemplateParser object>, text='{{extend layout.html}}\\r\\n\\r\\n<!DOCTYPE html>\\r\\n<html...page</title>\\r\\n</head>\\r\\n<body>\\r\\n\\r\\n</body>\\r\\n</html>')"
p194
sg87
S'parse'
p195
sa(dp196
g62
S'C:\\Users\\Manish Singh\\PycharmProjects\\ManishProject\\web2py\\gluon\\template.py'
p197
sg64
(dp198
S'text'
p199
g118
sS'self'
p200
S'<gluon.template.TemplateParser object>'
p201
sS'self._get_file_text'
p202
S'<bound method TemplateParser._get_file_text of <gluon.template.TemplateParser object>>'
p203
sS'filename'
p204
S"'layout.html'"
p205
sS'builtintuple'
p206
S"<type 'tuple'>"
p207
sS'self.delimiters'
p208
S"('{{', '}}')"
p209
ssg74
I474
sg75
(dp210
I469
S'        """'
p211
sI470
S'        Extends `filename`. Anything not declared in a block defined by the'
p212
sI471
S'        parent will be placed in the parent templates `{{include}}` block.'
p213
sI472
S'        """'
p214
sI473
S'        # If no filename, create a dummy layout with only an {{include}}.'
p215
sI474
S"        text = self._get_file_text(filename) or '%sinclude%s' % tuple(self.delimiters)"
p216
sI475
S''
sI476
S'        # Create out nodes list to send to the parent'
p217
sI477
S'        super_nodes = []'
p218
sI478
S'        # We want to include any non-handled nodes.'
p219
ssg85
S"(self=<gluon.template.TemplateParser object>, filename='layout.html')"
p220
sg87
S'extend'
p221
sa(dp222
g62
S'C:\\Users\\Manish Singh\\PycharmProjects\\ManishProject\\web2py\\gluon\\template.py'
p223
sg64
(dp224
S'builtineval'
p225
S'<built-in function eval>'
p226
sS'context'
p227
S"{'A': <class 'gluon.html.A'>, 'ANY_OF': <class 'gluon.validators.ANY_OF'>, 'ASSIGNJS': <function ASSIGNJS>, 'Auth': <class 'gluon.tools.Auth'>, 'B': <class 'gluon.html.B'>, 'BEAUTIFY': <class 'gluon.html.BEAUTIFY'>, 'BODY': <class 'gluon.html.BODY'>, 'BR': <class 'gluon.html.BR'>, 'BUTTON': <class 'gluon.html.BUTTON'>, 'CAT': <class 'gluon.html.CAT'>, ...}"
p228
sS'filename'
p229
S"'layout.html'"
p230
ssg74
I434
sg75
(dp231
I429
S'        if current and "response" not in context:'
p232
sI430
S'            context["response"] = getattr(current, \'response\', None)'
p233
sI431
S''
sI432
S'        # Get the filename; filename looks like ``"template.html"``.'
p234
sI433
S'        # We need to eval to remove the quotes and get the string type.'
p235
sI434
S'        filename = eval(filename, context)'
p236
sI435
S''
sI436
S'        # Allow empty filename for conditional extend and include directives.'
p237
sI437
S'        if not filename:'
p238
sI438
S"            return ''"
p239
ssg85
S"(self=<gluon.template.TemplateParser object>, filename='layout.html')"
p240
sg87
S'_get_file_text'
p241
sa(dp242
g62
S'C:\\Users\\Manish Singh\\PycharmProjects\\ManishProject\\web2py\\<string>'
p243
sg64
(dp244
sg74
I1
sg75
(dp245
sg85
S'()'
p246
sg87
S'<module>'
p247
sasS'pyver'
p248
S'Python 2.7.14: C:\\Python27\\python.exe (prefix: C:\\Python27)'
p249
sS'session'
p250
g57
(S's\x1f\n\x00\x00<div><table><tr><td style="font-weight:bold;vertical-align:top;">auth</td><td style="vertical-align:top;">:</td><td><div><table><tr><td style="font-weight:bold;vertical-align:top;">expiration</td><td style="vertical-align:top;">:</td><td><div>3600</div></td></tr><tr><td style="font-weight:bold;vertical-align:top;">hmac_key</td><td style="vertical-align:top;">:</td><td><div>3ccac186-c11b-4086-a444-5a1a1b7f7f0c</div></td></tr><tr><td style="font-weight:bold;vertical-align:top;">last_visit</td><td style="vertical-align:top;">:</td><td><div>datetime.datetime(2017, 11, 12, 19, 22, 52, 123000)</div></td></tr><tr><td style="font-weight:bold;vertical-align:top;">remember_me</td><td style="vertical-align:top;">:</td><td><div>False</div></td></tr><tr><td style="font-weight:bold;vertical-align:top;">user</td><td style="vertical-align:top;">:</td><td><div><table><tr><td style="font-weight:bold;vertical-align:top;">ctdatetime</td><td style="vertical-align:top;">:</td><td><div>datetime.datetime(2017, 11, 12, 18, 57, 6)</div></td></tr><tr><td style="font-weight:bold;vertical-align:top;">email</td><td style="vertical-align:top;">:</td><td><div>mm@ahh111aa.com</div></td></tr><tr><td style="font-weight:bold;vertical-align:top;">first_name</td><td style="vertical-align:top;">:</td><td><div>Yamaha</div></td></tr><tr><td style="font-weight:bold;vertical-align:top;">id</td><td style="vertical-align:top;">:</td><td><div>48L</div></td></tr><tr><td style="font-weight:bold;vertical-align:top;">last_name</td><td style="vertical-align:top;">:</td><td><div>HH</div></td></tr><tr><td style="font-weight:bold;vertical-align:top;">registration_id</td><td style="vertical-align:top;">:</td><td><div></div></td></tr><tr><td style="font-weight:bold;vertical-align:top;">registration_key</td><td style="vertical-align:top;">:</td><td><div></div></td></tr><tr><td style="font-weight:bold;vertical-align:top;">reset_password_key</td><td style="vertical-align:top;">:</td><td><div></div></td></tr><tr><td style="font-weight:bold;vertical-align:top;">utype</td><td style="vertical-align:top;">:</td><td><div>Regular User</div></td></tr></table></div></td></tr><tr><td style="font-weight:bold;vertical-align:top;">user_groups</td><td style="vertical-align:top;">:</td><td><div><table><tr><td style="font-weight:bold;vertical-align:top;">51</td><td style="vertical-align:top;">:</td><td><div>user_48</div></td></tr></table></div></td></tr></table></div></td></tr><tr><td style="font-weight:bold;vertical-align:top;">flash</td><td style="vertical-align:top;">:</td><td><div>None</div></td></tr></table></div>'
tRp251
sS'etype'
p252
S"<type 'exceptions.NameError'>"
p253
sS'date'
p254
S'Sun Nov 12 19:25:18 2017'
p255
sS'response'
p256
g57
(S'sK>\x00\x00<div><table><tr><td style="font-weight:bold;vertical-align:top;">body</td><td style="vertical-align:top;">:</td><td><div>&lt;cStringIO.StringO object at 0x0B6127E0&gt;</div></td></tr><tr><td style="font-weight:bold;vertical-align:top;">cookies</td><td style="vertical-align:top;">:</td><td><div><table><tr><td style="font-weight:bold;vertical-align:top;">session_id_manish_project_ecomplaint</td><td style="vertical-align:top;">:</td><td><div>127.0.0.1-3d183a54-8c78-4d36-95a2-b65aeed1d72e<table><tr><td style="font-weight:bold;vertical-align:top;">comment</td><td style="vertical-align:top;">:</td><td><div></div></td></tr><tr><td style="font-weight:bold;vertical-align:top;">domain</td><td style="vertical-align:top;">:</td><td><div></div></td></tr><tr><td style="font-weight:bold;vertical-align:top;">expires</td><td style="vertical-align:top;">:</td><td><div></div></td></tr><tr><td style="font-weight:bold;vertical-align:top;">httponly</td><td style="vertical-align:top;">:</td><td><div></div></td></tr><tr><td style="font-weight:bold;vertical-align:top;">max-age</td><td style="vertical-align:top;">:</td><td><div></div></td></tr><tr><td style="font-weight:bold;vertical-align:top;">path</td><td style="vertical-align:top;">:</td><td><div>/</div></td></tr><tr><td style="font-weight:bold;vertical-align:top;">secure</td><td style="vertical-align:top;">:</td><td><div></div></td></tr><tr><td style="font-weight:bold;vertical-align:top;">version</td><td style="vertical-align:top;">:</td><td><div></div></td></tr></table></div></td></tr></table></div></td></tr><tr><td style="font-weight:bold;vertical-align:top;">delimiters</td><td style="vertical-align:top;">:</td><td><div><table><tr><td><div>{{</div></td></tr><tr><td><div>}}</div></td></tr></table></div></td></tr><tr><td style="font-weight:bold;vertical-align:top;">files</td><td style="vertical-align:top;">:</td><td><div><table></table></div></td></tr><tr><td style="font-weight:bold;vertical-align:top;">flash</td><td style="vertical-align:top;">:</td><td><div>I am on homepage</div></td></tr><tr><td style="font-weight:bold;vertical-align:top;">form_label_separator</td><td style="vertical-align:top;">:</td><td><div>: </div></td></tr><tr><td style="font-weight:bold;vertical-align:top;">formstyle</td><td style="vertical-align:top;">:</td><td><div>table3cols</div></td></tr><tr><td style="font-weight:bold;vertical-align:top;">generic_patterns</td><td style="vertical-align:top;">:</td><td><div><table><tr><td><div>*</div></td></tr></table></div></td></tr><tr><td style="font-weight:bold;vertical-align:top;">google_analytics_id</td><td style="vertical-align:top;">:</td><td><div>None</div></td></tr><tr><td style="font-weight:bold;vertical-align:top;">headers</td><td style="vertical-align:top;">:</td><td><div><table><tr><td style="font-weight:bold;vertical-align:top;">X-Powered-By</td><td style="vertical-align:top;">:</td><td><div>web2py</div></td></tr></table></div></td></tr><tr><td style="font-weight:bold;vertical-align:top;">logo</td><td style="vertical-align:top;">:</td><td><div><a class="navbar-brand" href="http://www.web2py.com/" id="web2py-logo"><b>web<span>2</span>py</b>&trade;&nbsp;</a></div></td></tr><tr><td style="font-weight:bold;vertical-align:top;">menu</td><td style="vertical-align:top;">:</td><td><div><table><tr><td><div><table><tr><td><div>Home</div></td></tr><tr><td><div>False</div></td></tr><tr><td><div>/Manish_Project_eComplaint/default/index</div></td></tr><tr><td><div><table></table></div></td></tr></table></div></td></tr><tr><td><div><table><tr><td><div>My Sites</div></td></tr><tr><td><div>False</div></td></tr><tr><td><div>/admin/default/site</div></td></tr></table></div></td></tr><tr><td><div><table><tr><td><div>This App</div></td></tr><tr><td><div>False</div></td></tr><tr><td><div>#</div></td></tr><tr><td><div><table><tr><td><div><table><tr><td><div>Design</div></td></tr><tr><td><div>False</div></td></tr><tr><td><div>/admin/default/design/Manish_Project_eComplaint</div></td></tr></table></div></td></tr><tr><td><div><li class="divider"></li></div></td></tr><tr><td><div><table><tr><td><div>Controller</div></td></tr><tr><td><div>False</div></td></tr><tr><td><div>/admin/default/edit/Manish_Project_eComplaint/controllers/default.py</div></td></tr></table></div></td></tr><tr><td><div><table><tr><td><div>View</div></td></tr><tr><td><div>False</div></td></tr><tr><td><div>/admin/default/edit/Manish_Project_eComplaint/views/default/homepage.html</div></td></tr></table></div></td></tr><tr><td><div><table><tr><td><div>DB Model</div></td></tr><tr><td><div>False</div></td></tr><tr><td><div>/admin/default/edit/Manish_Project_eComplaint/models/db.py</div></td></tr></table></div></td></tr><tr><td><div><table><tr><td><div>Menu Model</div></td></tr><tr><td><div>False</div></td></tr><tr><td><div>/admin/default/edit/Manish_Project_eComplaint/models/menu.py</div></td></tr></table></div></td></tr><tr><td><div><table><tr><td><div>Config.ini</div></td></tr><tr><td><div>False</div></td></tr><tr><td><div>/admin/default/edit/Manish_Project_eComplaint/private/appconfig.ini</div></td></tr></table></div></td></tr><tr><td><div><table><tr><td><div>Layout</div></td></tr><tr><td><div>False</div></td></tr><tr><td><div>/admin/default/edit/Manish_Project_eComplaint/views/layout.html</div></td></tr></table></div></td></tr><tr><td><div><table><tr><td><div>Stylesheet</div></td></tr><tr><td><div>False</div></td></tr><tr><td><div>/admin/default/edit/Manish_Project_eComplaint/static/css/web2py-bootstrap3.css</div></td></tr></table></div></td></tr><tr><td><div><table><tr><td><div>Database</div></td></tr><tr><td><div>False</div></td></tr><tr><td><div>/Manish_Project_eComplaint/appadmin/index</div></td></tr></table></div></td></tr><tr><td><div><table><tr><td><div>Errors</div></td></tr><tr><td><div>False</div></td></tr><tr><td><div>/admin/default/errors/Manish_Project_eComplaint</div></td></tr></table></div></td></tr><tr><td><div><table><tr><td><div>About</div></td></tr><tr><td><div>False</div></td></tr><tr><td><div>/admin/default/about/Manish_Project_eComplaint</div></td></tr></table></div></td></tr></table></div></td></tr></table></div></td></tr><tr><td><div><table><tr><td><div>web2py.com</div></td></tr><tr><td><div>False</div></td></tr><tr><td><div>#</div></td></tr><tr><td><div><table><tr><td><div><table><tr><td><div>Download</div></td></tr><tr><td><div>False</div></td></tr><tr><td><div>http://www.web2py.com/examples/default/download</div></td></tr></table></div></td></tr><tr><td><div><table><tr><td><div>Support</div></td></tr><tr><td><div>False</div></td></tr><tr><td><div>http://www.web2py.com/examples/default/support</div></td></tr></table></div></td></tr><tr><td><div><table><tr><td><div>Demo</div></td></tr><tr><td><div>False</div></td></tr><tr><td><div>http://web2py.com/demo_admin</div></td></tr></table></div></td></tr><tr><td><div><table><tr><td><div>Quick Examples</div></td></tr><tr><td><div>False</div></td></tr><tr><td><div>http://web2py.com/examples/default/examples</div></td></tr></table></div></td></tr><tr><td><div><table><tr><td><div>FAQ</div></td></tr><tr><td><div>False</div></td></tr><tr><td><div>http://web2py.com/AlterEgo</div></td></tr></table></div></td></tr><tr><td><div><table><tr><td><div>Videos</div></td></tr><tr><td><div>False</div></td></tr><tr><td><div>http://www.web2py.com/examples/default/videos/</div></td></tr></table></div></td></tr><tr><td><div><table><tr><td><div>Free Applications</div></td></tr><tr><td><div>False</div></td></tr><tr><td><div>http://web2py.com/appliances</div></td></tr></table></div></td></tr><tr><td><div><table><tr><td><div>Plugins</div></td></tr><tr><td><div>False</div></td></tr><tr><td><div>http://web2py.com/plugins</div></td></tr></table></div></td></tr><tr><td><div><table><tr><td><div>Recipes</div></td></tr><tr><td><div>False</div></td></tr><tr><td><div>http://web2pyslices.com/</div></td></tr></table></div></td></tr></table></div></td></tr></table></div></td></tr><tr><td><div><table><tr><td><div>Documentation</div></td></tr><tr><td><div>False</div></td></tr><tr><td><div>#</div></td></tr><tr><td><div><table><tr><td><div><table><tr><td><div>Online book</div></td></tr><tr><td><div>False</div></td></tr><tr><td><div>http://www.web2py.com/book</div></td></tr></table></div></td></tr><tr><td><div><li class="divider"></li></div></td></tr><tr><td><div><table><tr><td><div>Preface</div></td></tr><tr><td><div>False</div></td></tr><tr><td><div>http://www.web2py.com/book/default/chapter/00</div></td></tr></table></div></td></tr><tr><td><div><table><tr><td><div>Introduction</div></td></tr><tr><td><div>False</div></td></tr><tr><td><div>http://www.web2py.com/book/default/chapter/01</div></td></tr></table></div></td></tr><tr><td><div><table><tr><td><div>Python</div></td></tr><tr><td><div>False</div></td></tr><tr><td><div>http://www.web2py.com/book/default/chapter/02</div></td></tr></table></div></td></tr><tr><td><div><table><tr><td><div>Overview</div></td></tr><tr><td><div>False</div></td></tr><tr><td><div>http://www.web2py.com/book/default/chapter/03</div></td></tr></table></div></td></tr><tr><td><div><table><tr><td><div>The Core</div></td></tr><tr><td><div>False</div></td></tr><tr><td><div>http://www.web2py.com/book/default/chapter/04</div></td></tr></table></div></td></tr><tr><td><div><table><tr><td><div>The Views</div></td></tr><tr><td><div>False</div></td></tr><tr><td><div>http://www.web2py.com/book/default/chapter/05</div></td></tr></table></div></td></tr><tr><td><div><table><tr><td><div>Database</div></td></tr><tr><td><div>False</div></td></tr><tr><td><div>http://www.web2py.com/book/default/chapter/06</div></td></tr></table></div></td></tr><tr><td><div><table><tr><td><div>Forms and Validators</div></td></tr><tr><td><div>False</div></td></tr><tr><td><div>http://www.web2py.com/book/default/chapter/07</div></td></tr></table></div></td></tr><tr><td><div><table><tr><td><div>Email and SMS</div></td></tr><tr><td><div>False</div></td></tr><tr><td><div>http://www.web2py.com/book/default/chapter/08</div></td></tr></table></div></td></tr><tr><td><div><table><tr><td><div>Access Control</div></td></tr><tr><td><div>False</div></td></tr><tr><td><div>http://www.web2py.com/book/default/chapter/09</div></td></tr></table></div></td></tr><tr><td><div><table><tr><td><div>Services</div></td></tr><tr><td><div>False</div></td></tr><tr><td><div>http://www.web2py.com/book/default/chapter/10</div></td></tr></table></div></td></tr><tr><td><div><table><tr><td><div>Ajax Recipes</div></td></tr><tr><td><div>False</div></td></tr><tr><td><div>http://www.web2py.com/book/default/chapter/11</div></td></tr></table></div></td></tr><tr><td><div><table><tr><td><div>Components and Plugins</div></td></tr><tr><td><div>False</div></td></tr><tr><td><div>http://www.web2py.com/book/default/chapter/12</div></td></tr></table></div></td></tr><tr><td><div><table><tr><td><div>Deployment Recipes</div></td></tr><tr><td><div>False</div></td></tr><tr><td><div>http://www.web2py.com/book/default/chapter/13</div></td></tr></table></div></td></tr><tr><td><div><table><tr><td><div>Other Recipes</div></td></tr><tr><td><div>False</div></td></tr><tr><td><div>http://www.web2py.com/book/default/chapter/14</div></td></tr></table></div></td></tr><tr><td><div><table><tr><td><div>Helping web2py</div></td></tr><tr><td><div>False</div></td></tr><tr><td><div>http://www.web2py.com/book/default/chapter/15</div></td></tr></table></div></td></tr><tr><td><div><table><tr><td><div>Buy web2py\'s book</div></td></tr><tr><td><div>False</div></td></tr><tr><td><div>http://stores.lulu.com/web2py</div></td></tr></table></div></td></tr></table></div></td></tr></table></div></td></tr><tr><td><div><table><tr><td><div>Community</div></td></tr><tr><td><div>False</div></td></tr><tr><td><div>None</div></td></tr><tr><td><div><table><tr><td><div><table><tr><td><div>Groups</div></td></tr><tr><td><div>False</div></td></tr><tr><td><div>http://www.web2py.com/examples/default/usergroups</div></td></tr></table></div></td></tr><tr><td><div><table><tr><td><div>Twitter</div></td></tr><tr><td><div>False</div></td></tr><tr><td><div>http://twitter.com/web2py</div></td></tr></table></div></td></tr><tr><td><div><table><tr><td><div>Live Chat</div></td></tr><tr><td><div>False</div></td></tr><tr><td><div>http://webchat.freenode.net/?channels=web2py</div></td></tr></table></div></td></tr></table></div></td></tr></table></div></td></tr></table></div></td></tr><tr><td style="font-weight:bold;vertical-align:top;">meta</td><td style="vertical-align:top;">:</td><td><div><table></table></div></td></tr><tr><td style="font-weight:bold;vertical-align:top;">models_to_run</td><td style="vertical-align:top;">:</td><td><div><table><tr><td><div>^\\w+\\.py$</div></td></tr><tr><td><div>^default/\\w+\\.py$</div></td></tr><tr><td><div>^default/homepage/\\w+\\.py$</div></td></tr></table></div></td></tr><tr><td style="font-weight:bold;vertical-align:top;">postprocessing</td><td style="vertical-align:top;">:</td><td><div><table></table></div></td></tr><tr><td style="font-weight:bold;vertical-align:top;">session_client</td><td style="vertical-align:top;">:</td><td><div>127.0.0.1</div></td></tr><tr><td style="font-weight:bold;vertical-align:top;">session_cookie_compression_level</td><td style="vertical-align:top;">:</td><td><div>None</div></td></tr><tr><td style="font-weight:bold;vertical-align:top;">session_cookie_expires</td><td style="vertical-align:top;">:</td><td><div>None</div></td></tr><tr><td style="font-weight:bold;vertical-align:top;">session_data_name</td><td style="vertical-align:top;">:</td><td><div>session_data_manish_project_ecomplaint</div></td></tr><tr><td style="font-weight:bold;vertical-align:top;">session_file</td><td style="vertical-align:top;">:</td><td><div>&lt;open file &#x27;C:\\\\Users\\\\Manish Singh\\\\PycharmProjects\\\\ManishProject\\\\web2py\\\\applications\\\\Manish_Project_eComplaint\\\\sessions\\\\1f9\\\\1b9\\\\127.0.0.1-3d183a54-8c78-4d36-95a2-b65aeed1d72e&#x27;, mode &#x27;rb+&#x27; at 0x0B115AC8&gt;</div></td></tr><tr><td style="font-weight:bold;vertical-align:top;">session_filename</td><td style="vertical-align:top;">:</td><td><div>C:\\Users\\Manish Singh\\PycharmProjects\\ManishProject\\web2py\\applications\\Manish_Project_eComplaint\\sessions\\127.0.0.1-3d183a54-8c78-4d36-95a2-b65aeed1d72e</div></td></tr><tr><td style="font-weight:bold;vertical-align:top;">session_hash</td><td style="vertical-align:top;">:</td><td><div>69e2af2fe00172cf9828944aac0d6802</div></td></tr><tr><td style="font-weight:bold;vertical-align:top;">session_id</td><td style="vertical-align:top;">:</td><td><div>127.0.0.1-3d183a54-8c78-4d36-95a2-b65aeed1d72e</div></td></tr><tr><td style="font-weight:bold;vertical-align:top;">session_id_name</td><td style="vertical-align:top;">:</td><td><div>session_id_manish_project_ecomplaint</div></td></tr><tr><td style="font-weight:bold;vertical-align:top;">session_locked</td><td style="vertical-align:top;">:</td><td><div>True</div></td></tr><tr><td style="font-weight:bold;vertical-align:top;">session_masterapp</td><td style="vertical-align:top;">:</td><td><div>Manish_Project_eComplaint</div></td></tr><tr><td style="font-weight:bold;vertical-align:top;">session_new</td><td style="vertical-align:top;">:</td><td><div>False</div></td></tr><tr><td style="font-weight:bold;vertical-align:top;">session_storage_type</td><td style="vertical-align:top;">:</td><td><div>file</div></td></tr><tr><td style="font-weight:bold;vertical-align:top;">status</td><td style="vertical-align:top;">:</td><td><div>200</div></td></tr><tr><td style="font-weight:bold;vertical-align:top;">subtitle</td><td style="vertical-align:top;">:</td><td><div></div></td></tr><tr><td style="font-weight:bold;vertical-align:top;">title</td><td style="vertical-align:top;">:</td><td><div>Manish Project Ecomplaint</div></td></tr><tr><td style="font-weight:bold;vertical-align:top;">view</td><td style="vertical-align:top;">:</td><td><div>default/homepage.html</div></td></tr></table></div>'
tRp257
sS'locals'
p258
(dp259
S'PY2'
p260
S'True'
p261
sS'OBJECT'
p262
S"<class 'gluon.html.OBJECT'>"
p263
sS'SQLDB'
p264
S"<class 'pydal.base.DAL'>"
p265
sg250
S"<Storage {'_formkey[policeman/create]': ['bae2ac...2ad6d', '49f3d8b4-0945-4fac-b8ef-1c3aee3e0abb']}>"
p266
sS'LINK'
p267
S"<class 'gluon.html.LINK'>"
p268
sS'BR'
p269
S"<class 'gluon.html.BR'>"
p270
sS'local_import'
p271
S'<function <lambda>>'
p272
sS'OPTGROUP'
p273
S"<class 'gluon.html.OPTGROUP'>"
p274
sS'__package__'
p275
S'None'
p276
sS'row'
p277
S'<Row {\'auth_event\': <Set ("auth_event"."user_id"...\': <Set ("auth_cas"."user_id" = 48)>, \'id\': 48L}>'
p278
sS'PRE'
p279
S"<class 'gluon.html.PRE'>"
p280
sS'IS_INT_IN_RANGE'
p281
S"<class 'gluon.validators.IS_INT_IN_RANGE'>"
p282
sS'to_bytes'
p283
S'<function to_bytes>'
p284
sS'IS_LOWER'
p285
S"<class 'gluon.validators.IS_LOWER'>"
p286
sS'IS_STRONG'
p287
S"<class 'gluon.validators.IS_STRONG'>"
p288
sS'cache'
p289
S'<gluon.cache.Cache object>'
p290
sS'IS_IN_DB'
p291
S"<class 'gluon.validators.IS_IN_DB'>"
p292
sS'TAG'
p293
S'<gluon.html.__TAG__ object>'
p294
sS'SQLField'
p295
S"<class 'pydal.objects.Field'>"
p296
sS'BODY'
p297
S"<class 'gluon.html.BODY'>"
p298
sS'IS_DATE_IN_RANGE'
p299
S"<class 'gluon.validators.IS_DATE_IN_RANGE'>"
p300
sS'IFRAME'
p301
S"<class 'gluon.html.IFRAME'>"
p302
sS'URL'
p303
S'<function URL>'
p304
sS'__file__'
p305
S"r'C:\\Users\\Manish Singh\\PycharmProjects\\ManishProj...ications\\Manish_Project_eComplaint\\models\\menu.py'"
p306
sS'db'
p307
S'<DAL uri="sqlite://storage.sqlite">'
p308
sS'auth'
p309
S'<gluon.tools.Auth object>'
p310
sS'P'
S"<class 'gluon.html.P'>"
p311
sS'TFOOT'
p312
S"<class 'gluon.html.TFOOT'>"
p313
sS'iteritems'
p314
S'<function <lambda>>'
p315
sS'XHTML'
p316
S"<class 'gluon.html.XHTML'>"
p317
sS'datetime'
p318
S"<module 'datetime' (built-in)>"
p319
sS'ON'
p320
g261
sS'OL'
p321
S"<class 'gluon.html.OL'>"
p322
sS'TEXTAREA'
p323
S"<class 'gluon.html.TEXTAREA'>"
p324
sS'MENU'
p325
S"<class 'gluon.html.MENU'>"
p326
sS'IS_IMAGE'
p327
S"<class 'gluon.validators.IS_IMAGE'>"
p328
sS'EM'
p329
S"<class 'gluon.html.EM'>"
p330
sS'CODE'
p331
S"<class 'gluon.html.CODE'>"
p332
sS'HTTP'
p333
S"<class 'gluon.http.HTTP'>"
p334
sS'HR'
p335
S"<class 'gluon.html.HR'>"
p336
sS'IS_DATETIME'
p337
S"<class 'gluon.validators.IS_DATETIME'>"
p338
sS'reduce'
p339
S'<built-in function reduce>'
p340
sS'STYLE'
p341
S"<class 'gluon.html.STYLE'>"
p342
sS'LABEL'
p343
S"<class 'gluon.html.LABEL'>"
p344
sS'CLEANUP'
p345
S"<class 'gluon.validators.CLEANUP'>"
p346
sS'SELECT'
p347
S"<class 'gluon.html.SELECT'>"
p348
sS'CENTER'
p349
S"<class 'gluon.html.CENTER'>"
p350
sS'Auth'
p351
S"<class 'gluon.tools.Auth'>"
p352
sS'DEVELOPMENT_MENU'
p353
g261
sS'__builtins__'
p354
S"{'ArithmeticError': <type 'exceptions.ArithmeticError'>, 'AssertionError': <type 'exceptions.AssertionError'>, 'AttributeError': <type 'exceptions.AttributeError'>, 'BaseException': <type 'exceptions.BaseException'>, 'BufferError': <type 'exceptions.BufferError'>, 'BytesWarning': <type 'exceptions.BytesWarning'>, 'DeprecationWarning': <type 'exceptions.DeprecationWarning'>, 'EOFError': <type 'exceptions.EOFError'>, 'Ellipsis': Ellipsis, 'EnvironmentError': <type 'exceptions.EnvironmentError'>, ...}"
p355
sS'HTML'
p356
S"<class 'gluon.html.HTML'>"
p357
sS'SQLFORM'
p358
S"<class 'gluon.sqlhtml.SQLFORM'>"
p359
sS'LOAD'
p360
S'<function LOAD>'
p361
sS'redirect'
p362
S'<function redirect>'
p363
sS'FIELDSET'
p364
S"<class 'gluon.html.FIELDSET'>"
p365
sS'IS_EQUAL_TO'
p366
S"<class 'gluon.validators.IS_EQUAL_TO'>"
p367
sS'embed64'
p368
S'<function embed64>'
p369
sS'IS_LIST_OF'
p370
S"<class 'gluon.validators.IS_LIST_OF'>"
p371
sS'INPUT'
p372
S"<class 'gluon.html.INPUT'>"
p373
sS'EMBED'
p374
S"<class 'gluon.html.EMBED'>"
p375
sS'_'
S'<function _>'
p376
sS'H2'
p377
S"<class 'gluon.html.H2'>"
p378
sS'H3'
p379
S"<class 'gluon.html.H3'>"
p380
sS'BUTTON'
p381
S"<class 'gluon.html.BUTTON'>"
p382
sS'H1'
p383
S"<class 'gluon.html.H1'>"
p384
sS'H6'
p385
S"<class 'gluon.html.H6'>"
p386
sS'H4'
p387
S"<class 'gluon.html.H4'>"
p388
sS'H5'
p389
S"<class 'gluon.html.H5'>"
p390
sS'UL'
p391
S"<class 'gluon.html.UL'>"
p392
sS'IS_UPPER'
p393
S"<class 'gluon.validators.IS_UPPER'>"
p394
sS'xmlescape'
p395
S'<function xmlescape>'
p396
sS'IS_TIME'
p397
S"<class 'gluon.validators.IS_TIME'>"
p398
sS'OPTION'
p399
S"<class 'gluon.html.OPTION'>"
p400
sS'TITLE'
p401
S"<class 'gluon.html.TITLE'>"
p402
sS'CRYPT'
p403
S"<class 'gluon.validators.CRYPT'>"
p404
sS'IS_EMPTY_OR'
p405
S"<class 'gluon.validators.IS_EMPTY_OR'>"
p406
sS'MARKMIN'
p407
S"<class 'gluon.html.MARKMIN'>"
p408
sS'__name__'
p409
S"'__restricted__'"
p410
sS'STRONG'
p411
S"<class 'gluon.html.STRONG'>"
p412
sS'COL'
p413
S"<class 'gluon.html.COL'>"
p414
sS'SCRIPT'
p415
S"<class 'gluon.html.SCRIPT'>"
p416
sS'TABLE'
p417
S"<class 'gluon.html.TABLE'>"
p418
sS'IS_IPV4'
p419
S"<class 'gluon.validators.IS_IPV4'>"
p420
sS'IS_LENGTH'
p421
S"<class 'gluon.validators.IS_LENGTH'>"
p422
sS'IS_IPV6'
p423
S"<class 'gluon.validators.IS_IPV6'>"
p424
sS'XML'
p425
S"<class 'gluon.html.XML'>"
p426
sS'B'
S"<class 'gluon.html.B'>"
p427
sS'IMG'
p428
S"<class 'gluon.html.IMG'>"
p429
sS'SQLTABLE'
p430
S"<class 'gluon.sqlhtml.SQLTABLE'>"
p431
sS'IS_MATCH'
p432
S"<class 'gluon.validators.IS_MATCH'>"
p433
sS'IS_ALPHANUMERIC'
p434
S"<class 'gluon.validators.IS_ALPHANUMERIC'>"
p435
sS'SPAN'
p436
S"<class 'gluon.html.SPAN'>"
p437
sS'IS_JSON'
p438
S"<class 'gluon.validators.IS_JSON'>"
p439
sS'IS_IPADDRESS'
p440
S"<class 'gluon.validators.IS_IPADDRESS'>"
p441
sS'IS_SLUG'
p442
S"<class 'gluon.validators.IS_SLUG'>"
p443
sS'BEAUTIFY'
p444
S"<class 'gluon.html.BEAUTIFY'>"
p445
sS'META'
p446
S"<class 'gluon.html.META'>"
p447
sS'IS_DATE'
p448
S"<class 'gluon.validators.IS_DATE'>"
p449
sS'IS_EMAIL'
p450
S"<class 'gluon.validators.IS_EMAIL'>"
p451
sS'IS_NOT_EMPTY'
p452
S"<class 'gluon.validators.IS_NOT_EMPTY'>"
p453
sS'xrange'
p454
S"<type 'xrange'>"
p455
sS'TBODY'
p456
S"<class 'gluon.html.TBODY'>"
p457
sS'CAT'
p458
S"<class 'gluon.html.CAT'>"
p459
sS'Field'
p460
S"<class 'pydal.objects.Field'>"
p461
sS'IS_LIST_OF_EMAILS'
p462
S"<class 'gluon.validators.IS_LIST_OF_EMAILS'>"
p463
sg56
S"<Storage {'_vars': <Storage {}>, 'function': 'ho...2py\\\\applications\\\\Manish_Project_eComplaint\\\\'}>"
p464
sS'DIV'
p465
S"<class 'gluon.html.DIV'>"
p466
sS'LEGEND'
p467
S"<class 'gluon.html.LEGEND'>"
p468
sS'form'
p469
S'<gluon.sqlhtml.SQLFORM object>'
p470
sS'to_native'
p471
S'<function to_native>'
p472
sS'COLGROUP'
p473
S"<class 'gluon.html.COLGROUP'>"
p474
sS'DAL'
p475
S"<class 'pydal.base.DAL'>"
p476
sS'ASSIGNJS'
p477
S'<function ASSIGNJS>'
p478
sS'TR'
p479
S"<class 'gluon.html.TR'>"
p480
sS'LI'
p481
S"<class 'gluon.html.LI'>"
p482
sS'myrecords'
p483
S'<Rows (1)>'
p484
sS'TH'
p485
S"<class 'gluon.html.TH'>"
p486
sS'TD'
p487
S"<class 'gluon.html.TD'>"
p488
sS'IS_URL'
p489
S"<class 'gluon.validators.IS_URL'>"
p490
sS'A'
S"<class 'gluon.html.A'>"
p491
sS'HEAD'
p492
S"<class 'gluon.html.HEAD'>"
p493
sS'IS_DATETIME_IN_RANGE'
p494
S"<class 'gluon.validators.IS_DATETIME_IN_RANGE'>"
p495
sS'FORM'
p496
S"<class 'gluon.html.FORM'>"
p497
sS'I'
S"<class 'gluon.html.I'>"
p498
sS'IS_NOT_IN_DB'
p499
S"<class 'gluon.validators.IS_NOT_IN_DB'>"
p500
sg256
S"<Storage {'body': <cStringIO.StringO object at 0...at 0x0A58F670>, 'view': 'default/homepage.html'}>"
p501
sS'THEAD'
p502
S"<class 'gluon.html.THEAD'>"
p503
sS'ANY_OF'
p504
S"<class 'gluon.validators.ANY_OF'>"
p505
sS'IS_NULL_OR'
p506
S"<class 'gluon.validators.IS_EMPTY_OR'>"
p507
sS'IS_FLOAT_IN_RANGE'
p508
S"<class 'gluon.validators.IS_FLOAT_IN_RANGE'>"
p509
sS'IS_EXPR'
p510
S"<class 'gluon.validators.IS_EXPR'>"
p511
sS'T'
S'<gluon.languages.translator object>'
p512
sS'IS_IN_SET'
p513
S"<class 'gluon.validators.IS_IN_SET'>"
p514
sS'IS_UPLOAD_FILENAME'
p515
S"<class 'gluon.validators.IS_UPLOAD_FILENAME'>"
p516
sS'TT'
p517
S"<class 'gluon.html.TT'>"
p518
sS'IS_DECIMAL_IN_RANGE'
p519
S"<class 'gluon.validators.IS_DECIMAL_IN_RANGE'>"
p520
sssS'traceback'
p521
S'Traceback (most recent call last):\n  File "C:\\Users\\Manish Singh\\PycharmProjects\\ManishProject\\web2py\\gluon\\main.py", line 445, in wsgibase\n    serve_controller(request, response, session)\n  File "C:\\Users\\Manish Singh\\PycharmProjects\\ManishProject\\web2py\\gluon\\main.py", line 184, in serve_controller\n    page = run_view_in(response._view_environment)\n  File "C:\\Users\\Manish Singh\\PycharmProjects\\ManishProject\\web2py\\gluon\\compileapp.py", line 725, in run_view_in\n    context=environment)\n  File "C:\\Users\\Manish Singh\\PycharmProjects\\ManishProject\\web2py\\gluon\\template.py", line 792, in parse_template\n    return str(TemplateParser(text, context=context, path=path, lexers=lexers, delimiters=delimiters))\n  File "C:\\Users\\Manish Singh\\PycharmProjects\\ManishProject\\web2py\\gluon\\template.py", line 314, in __init__\n    self.parse(text)\n  File "C:\\Users\\Manish Singh\\PycharmProjects\\ManishProject\\web2py\\gluon\\template.py", line 760, in parse\n    self.extend(extend)\n  File "C:\\Users\\Manish Singh\\PycharmProjects\\ManishProject\\web2py\\gluon\\template.py", line 474, in extend\n    text = self._get_file_text(filename) or \'%sinclude%s\' % tuple(self.delimiters)\n  File "C:\\Users\\Manish Singh\\PycharmProjects\\ManishProject\\web2py\\gluon\\template.py", line 434, in _get_file_text\n    filename = eval(filename, context)\n  File "<string>", line 1, in <module>\nNameError: name \'layout\' is not defined\n'
p522
s.