(dp1
S'output'
p2
S"<type 'exceptions.TypeError'> grid() got an unexpected keyword argument 'delatable'"
p3
sS'layer'
p4
S'C:\\Users\\Manish Singh\\PycharmProjects\\ManishProject\\web2py\\applications\\Manish_Project_eComplaint\\controllers/default.py'
p5
sS'code'
p6
S'<code object <module> at 0B3A16E0, file "C:\\Users\\Manish Singh\\PycharmProjects\\ManishProject\\web2py\\applications\\Manish_Project_eComplaint\\controllers/default.py", line 11>'
p7
sS'snapshot'
p8
(dp9
S'exception'
p10
(dp11
S'__getslice__'
p12
S"<method-wrapper '__getslice__' of exceptions.TypeError object>"
p13
sS'__str__'
p14
S"<method-wrapper '__str__' of exceptions.TypeError object>"
p15
sS'__reduce__'
p16
S'<built-in method __reduce__ of exceptions.TypeError object>'
p17
sS'__dict__'
p18
S'{}'
p19
sS'message'
p20
S'"grid() got an unexpected keyword argument \'delatable\'"'
p21
sS'__sizeof__'
p22
S'<built-in method __sizeof__ of exceptions.TypeError object>'
p23
sS'__init__'
p24
S"<method-wrapper '__init__' of exceptions.TypeError object>"
p25
sS'__setattr__'
p26
S"<method-wrapper '__setattr__' of exceptions.TypeError object>"
p27
sS'__reduce_ex__'
p28
S'<built-in method __reduce_ex__ of exceptions.TypeError object>'
p29
sS'__new__'
p30
S'<built-in method __new__ of type object>'
p31
sS'__format__'
p32
S'<built-in method __format__ of exceptions.TypeError object>'
p33
sS'__class__'
p34
S"<type 'exceptions.TypeError'>"
p35
sS'__doc__'
p36
S"'Inappropriate argument type.'"
p37
sS'__getitem__'
p38
S"<method-wrapper '__getitem__' of exceptions.TypeError object>"
p39
sS'__setstate__'
p40
S'<built-in method __setstate__ of exceptions.TypeError object>'
p41
sS'__getattribute__'
p42
S"<method-wrapper '__getattribute__' of exceptions.TypeError object>"
p43
sS'args'
p44
S'("grid() got an unexpected keyword argument \'delatable\'",)'
p45
sS'__subclasshook__'
p46
S'<built-in method __subclasshook__ of type object>'
p47
sS'__unicode__'
p48
S'<built-in method __unicode__ of exceptions.TypeError object>'
p49
sS'__delattr__'
p50
S"<method-wrapper '__delattr__' of exceptions.TypeError object>"
p51
sS'__repr__'
p52
S"<method-wrapper '__repr__' of exceptions.TypeError object>"
p53
sS'__hash__'
p54
S"<method-wrapper '__hash__' of exceptions.TypeError object>"
p55
ssS'evalue'
p56
S"grid() got an unexpected keyword argument 'delatable'"
p57
sS'request'
p58
cgluon.html
XML_unpickle
p59
(S's\xd7i\x00\x00<div><table><tr><td style="font-weight:bold;vertical-align:top;">ajax</td><td style="vertical-align:top;">:</td><td><div>False</div></td></tr><tr><td style="font-weight:bold;vertical-align:top;">application</td><td style="vertical-align:top;">:</td><td><div>Manish_Project_eComplaint</div></td></tr><tr><td style="font-weight:bold;vertical-align:top;">args</td><td style="vertical-align:top;">:</td><td><div><table><tr><td><div>crime</div></td></tr></table></div></td></tr><tr><td style="font-weight:bold;vertical-align:top;">cid</td><td style="vertical-align:top;">:</td><td><div>None</div></td></tr><tr><td style="font-weight:bold;vertical-align:top;">client</td><td style="vertical-align:top;">:</td><td><div>127.0.0.1</div></td></tr><tr><td style="font-weight:bold;vertical-align:top;">controller</td><td style="vertical-align:top;">:</td><td><div>default</div></td></tr><tr><td style="font-weight:bold;vertical-align:top;">cookies</td><td style="vertical-align:top;">:</td><td><div><table><tr><td style="font-weight:bold;vertical-align:top;">session_id_admin</td><td style="vertical-align:top;">:</td><td><div>127.0.0.1-e6236ed6-f403-42b0-952c-119f2f4561a7<table><tr><td style="font-weight:bold;vertical-align:top;">comment</td><td style="vertical-align:top;">:</td><td><div></div></td></tr><tr><td style="font-weight:bold;vertical-align:top;">domain</td><td style="vertical-align:top;">:</td><td><div></div></td></tr><tr><td style="font-weight:bold;vertical-align:top;">expires</td><td style="vertical-align:top;">:</td><td><div></div></td></tr><tr><td style="font-weight:bold;vertical-align:top;">httponly</td><td style="vertical-align:top;">:</td><td><div></div></td></tr><tr><td style="font-weight:bold;vertical-align:top;">max-age</td><td style="vertical-align:top;">:</td><td><div></div></td></tr><tr><td style="font-weight:bold;vertical-align:top;">path</td><td style="vertical-align:top;">:</td><td><div></div></td></tr><tr><td style="font-weight:bold;vertical-align:top;">secure</td><td style="vertical-align:top;">:</td><td><div></div></td></tr><tr><td style="font-weight:bold;vertical-align:top;">version</td><td style="vertical-align:top;">:</td><td><div></div></td></tr></table></div></td></tr><tr><td style="font-weight:bold;vertical-align:top;">session_id_manish_project_ecomplaint</td><td style="vertical-align:top;">:</td><td><div>127.0.0.1-6b4f64fc-b693-4885-8eb9-5642a662ff9d<table><tr><td style="font-weight:bold;vertical-align:top;">comment</td><td style="vertical-align:top;">:</td><td><div></div></td></tr><tr><td style="font-weight:bold;vertical-align:top;">domain</td><td style="vertical-align:top;">:</td><td><div></div></td></tr><tr><td style="font-weight:bold;vertical-align:top;">expires</td><td style="vertical-align:top;">:</td><td><div></div></td></tr><tr><td style="font-weight:bold;vertical-align:top;">httponly</td><td style="vertical-align:top;">:</td><td><div></div></td></tr><tr><td style="font-weight:bold;vertical-align:top;">max-age</td><td style="vertical-align:top;">:</td><td><div></div></td></tr><tr><td style="font-weight:bold;vertical-align:top;">path</td><td style="vertical-align:top;">:</td><td><div></div></td></tr><tr><td style="font-weight:bold;vertical-align:top;">secure</td><td style="vertical-align:top;">:</td><td><div></div></td></tr><tr><td style="font-weight:bold;vertical-align:top;">version</td><td style="vertical-align:top;">:</td><td><div></div></td></tr></table></div></td></tr><tr><td style="font-weight:bold;vertical-align:top;">session_id_todo</td><td style="vertical-align:top;">:</td><td><div>127.0.0.1-cd4d7697-e6aa-45e1-8974-217c6065d65d<table><tr><td style="font-weight:bold;vertical-align:top;">comment</td><td style="vertical-align:top;">:</td><td><div></div></td></tr><tr><td style="font-weight:bold;vertical-align:top;">domain</td><td style="vertical-align:top;">:</td><td><div></div></td></tr><tr><td style="font-weight:bold;vertical-align:top;">expires</td><td style="vertical-align:top;">:</td><td><div></div></td></tr><tr><td style="font-weight:bold;vertical-align:top;">httponly</td><td style="vertical-align:top;">:</td><td><div></div></td></tr><tr><td style="font-weight:bold;vertical-align:top;">max-age</td><td style="vertical-align:top;">:</td><td><div></div></td></tr><tr><td style="font-weight:bold;vertical-align:top;">path</td><td style="vertical-align:top;">:</td><td><div></div></td></tr><tr><td style="font-weight:bold;vertical-align:top;">secure</td><td style="vertical-align:top;">:</td><td><div></div></td></tr><tr><td style="font-weight:bold;vertical-align:top;">version</td><td style="vertical-align:top;">:</td><td><div></div></td></tr></table></div></td></tr><tr><td style="font-weight:bold;vertical-align:top;">session_id_welcome</td><td style="vertical-align:top;">:</td><td><div>127.0.0.1-d0ab36da-9c5d-467b-8971-bbd48f7b8c35<table><tr><td style="font-weight:bold;vertical-align:top;">comment</td><td style="vertical-align:top;">:</td><td><div></div></td></tr><tr><td style="font-weight:bold;vertical-align:top;">domain</td><td style="vertical-align:top;">:</td><td><div></div></td></tr><tr><td style="font-weight:bold;vertical-align:top;">expires</td><td style="vertical-align:top;">:</td><td><div></div></td></tr><tr><td style="font-weight:bold;vertical-align:top;">httponly</td><td style="vertical-align:top;">:</td><td><div></div></td></tr><tr><td style="font-weight:bold;vertical-align:top;">max-age</td><td style="vertical-align:top;">:</td><td><div></div></td></tr><tr><td style="font-weight:bold;vertical-align:top;">path</td><td style="vertical-align:top;">:</td><td><div></div></td></tr><tr><td style="font-weight:bold;vertical-align:top;">secure</td><td style="vertical-align:top;">:</td><td><div></div></td></tr><tr><td style="font-weight:bold;vertical-align:top;">version</td><td style="vertical-align:top;">:</td><td><div></div></td></tr></table></div></td></tr></table></div></td></tr><tr><td style="font-weight:bold;vertical-align:top;">env</td><td style="vertical-align:top;">:</td><td><div><table><tr><td style="font-weight:bold;vertical-align:top;">HTTP_ACCEPT</td><td style="vertical-align:top;">:</td><td><div>text/html,application/xhtml+xml,application/xml;q=0.9,image/webp,image/apng,*/*;q=0.8</div></td></tr><tr><td style="font-weight:bold;vertical-align:top;">HTTP_ACCEPT_ENCODING</td><td style="vertical-align:top;">:</td><td><div>gzip, deflate, br</div></td></tr><tr><td style="font-weight:bold;vertical-align:top;">HTTP_ACCEPT_LANGUAGE</td><td style="vertical-align:top;">:</td><td><div>en-US,en;q=0.8</div></td></tr><tr><td style="font-weight:bold;vertical-align:top;">HTTP_CACHE_CONTROL</td><td style="vertical-align:top;">:</td><td><div>max-age=0</div></td></tr><tr><td style="font-weight:bold;vertical-align:top;">HTTP_CONNECTION</td><td style="vertical-align:top;">:</td><td><div>keep-alive</div></td></tr><tr><td style="font-weight:bold;vertical-align:top;">HTTP_COOKIE</td><td style="vertical-align:top;">:</td><td><div>session_id_todo=127.0.0.1-cd4d7697-e6aa-45e1-8974-217c6065d65d; session_id_welcome=127.0.0.1-d0ab36da-9c5d-467b-8971-bbd48f7b8c35; session_id_admin=127.0.0.1-e6236ed6-f403-42b0-952c-119f2f4561a7; session_id_manish_project_ecomplaint=127.0.0.1-6b4f64fc-b693-4885-8eb9-5642a662ff9d</div></td></tr><tr><td style="font-weight:bold;vertical-align:top;">HTTP_HOST</td><td style="vertical-align:top;">:</td><td><div>127.0.0.1:8000</div></td></tr><tr><td style="font-weight:bold;vertical-align:top;">HTTP_REFERER</td><td style="vertical-align:top;">:</td><td><div>http://127.0.0.1:8000/Manish_Project_eComplaint/default/user/register?_next=/Manish_Project_eComplaint/default/index</div></td></tr><tr><td style="font-weight:bold;vertical-align:top;">HTTP_UPGRADE_INSECURE_REQUESTS</td><td style="vertical-align:top;">:</td><td><div>1</div></td></tr><tr><td style="font-weight:bold;vertical-align:top;">HTTP_USER_AGENT</td><td style="vertical-align:top;">:</td><td><div>Mozilla/5.0 (Windows NT 10.0; Win64; x64) AppleWebKit/537.36 (KHTML, like Gecko) Chrome/61.0.3163.100 Safari/537.36</div></td></tr><tr><td style="font-weight:bold;vertical-align:top;">PATH_INFO</td><td style="vertical-align:top;">:</td><td><div>/Manish_Project_eComplaint/default/crime_journalist</div></td></tr><tr><td style="font-weight:bold;vertical-align:top;">QUERY_STRING</td><td style="vertical-align:top;">:</td><td><div></div></td></tr><tr><td style="font-weight:bold;vertical-align:top;">REMOTE_ADDR</td><td style="vertical-align:top;">:</td><td><div>127.0.0.1</div></td></tr><tr><td style="font-weight:bold;vertical-align:top;">REMOTE_PORT</td><td style="vertical-align:top;">:</td><td><div>50566</div></td></tr><tr><td style="font-weight:bold;vertical-align:top;">REQUEST_METHOD</td><td style="vertical-align:top;">:</td><td><div>GET</div></td></tr><tr><td style="font-weight:bold;vertical-align:top;">SCRIPT_NAME</td><td style="vertical-align:top;">:</td><td><div></div></td></tr><tr><td style="font-weight:bold;vertical-align:top;">SERVER_NAME</td><td style="vertical-align:top;">:</td><td><div>ManishLaptop</div></td></tr><tr><td style="font-weight:bold;vertical-align:top;">SERVER_PORT</td><td style="vertical-align:top;">:</td><td><div>8000</div></td></tr><tr><td style="font-weight:bold;vertical-align:top;">SERVER_PROTOCOL</td><td style="vertical-align:top;">:</td><td><div>HTTP/1.1</div></td></tr><tr><td style="font-weight:bold;vertical-align:top;">SERVER_SOFTWARE</td><td style="vertical-align:top;">:</td><td><div>Rocket 1.2.6</div></td></tr><tr><td style="font-weight:bold;vertical-align:top;">app_folders</td><td style="vertical-align:top;">:</td><td><div>set([&#x27;C:\\\\Users\\\\Manish Singh\\\\PycharmProjects\\\\ManishProject\\\\web2py\\\\applications\\\\Manish_Project_eComplaint\\\\&#x27;, &#x27;C:\\\\Users\\\\Manish Singh\\\\PycharmProjects\\\\ManishProject\\\\web2py\\\\applications\\\\welcome\\\\&#x27;, &#x27;C:\\\\Users\\\\Manish Singh\\\\PycharmProjects\\\\ManishProject\\\\web2py\\\\applications\\\\admin\\\\&#x27;])</div></td></tr><tr><td style="font-weight:bold;vertical-align:top;">applications_parent</td><td style="vertical-align:top;">:</td><td><div>C:\\Users\\Manish Singh\\PycharmProjects\\ManishProject\\web2py</div></td></tr><tr><td style="font-weight:bold;vertical-align:top;">cmd_args</td><td style="vertical-align:top;">:</td><td><div><table></table></div></td></tr><tr><td style="font-weight:bold;vertical-align:top;">cmd_options</td><td style="vertical-align:top;">:</td><td><div>&lt;Values at 0x3fc2148: {&#x27;verbose&#x27;: False, &#x27;ip&#x27;: &#x27;127.0.0.1&#x27;, &#x27;debuglevel&#x27;: 30, &#x27;with_scheduler&#x27;: False, &#x27;shutdown_timeout&#x27;: 5, &#x27;taskbar&#x27;: False, &#x27;with_coverage&#x27;: False, &#x27;pid_filename&#x27;: &#x27;httpserver.pid&#x27;, &#x27;maxthreads&#x27;: None, &#x27;softcron&#x27;: False, &#x27;server_name&#x27;: &#x27;ManishLaptop&#x27;, &#x27;bpython&#x27;: False, &#x27;nogui&#x27;: False, &#x27;port&#x27;: 8000, &#x27;print_errors&#x27;: False, &#x27;extcron&#x27;: False, &#x27;runcron&#x27;: False, &#x27;run_system_tests&#x27;: False, &#x27;test&#x27;: None, &#x27;folder&#x27;: &#x27;C:\\\\Users\\\\Manish Singh\\\\PycharmProjects\\\\ManishProject\\\\web2py&#x27;, &#x27;config&#x27;: &#x27;&#x27;, &#x27;minthreads&#x27;: None, &#x27;shell&#x27;: None, &#x27;run&#x27;: &#x27;&#x27;, &#x27;log_filename&#x27;: &#x27;httpserver.log&#x27;, &#x27;profiler_dir&#x27;: None, &#x27;args&#x27;: [&#x27;&#x27;], &#x27;socket_timeout&#x27;: 5, &#x27;ssl_ca_certificate&#x27;: None, &#x27;scheduler&#x27;: None, &#x27;interfaces&#x27;: None, &#x27;ssl_private_key&#x27;: &#x27;&#x27;, &#x27;gae&#x27;: None, &#x27;password&#x27;: &#x27;******&#x27;, &#x27;request_queue_size&#x27;: 5, &#x27;ssl_certificate&#x27;: &#x27;&#x27;, &#x27;cronjob&#x27;: False, &#x27;numthreads&#x27;: None, &#x27;quiet&#x27;: False, &#x27;import_models&#x27;: False, &#x27;timeout&#x27;: 10, &#x27;plain&#x27;: False, &#x27;nobanner&#x27;: False}&gt;</div></td></tr><tr><td style="font-weight:bold;vertical-align:top;">db_sessions</td><td style="vertical-align:top;">:</td><td><div>set([])</div></td></tr><tr><td style="font-weight:bold;vertical-align:top;">debugging</td><td style="vertical-align:top;">:</td><td><div>True</div></td></tr><tr><td style="font-weight:bold;vertical-align:top;">gluon_parent</td><td style="vertical-align:top;">:</td><td><div>C:\\Users\\Manish Singh\\PycharmProjects\\ManishProject\\web2py</div></td></tr><tr><td style="font-weight:bold;vertical-align:top;">http_accept</td><td style="vertical-align:top;">:</td><td><div>text/html,application/xhtml+xml,application/xml;q=0.9,image/webp,image/apng,*/*;q=0.8</div></td></tr><tr><td style="font-weight:bold;vertical-align:top;">http_accept_encoding</td><td style="vertical-align:top;">:</td><td><div>gzip, deflate, br</div></td></tr><tr><td style="font-weight:bold;vertical-align:top;">http_accept_language</td><td style="vertical-align:top;">:</td><td><div>en-US,en;q=0.8</div></td></tr><tr><td style="font-weight:bold;vertical-align:top;">http_cache_control</td><td style="vertical-align:top;">:</td><td><div>max-age=0</div></td></tr><tr><td style="font-weight:bold;vertical-align:top;">http_connection</td><td style="vertical-align:top;">:</td><td><div>keep-alive</div></td></tr><tr><td style="font-weight:bold;vertical-align:top;">http_cookie</td><td style="vertical-align:top;">:</td><td><div>session_id_todo=127.0.0.1-cd4d7697-e6aa-45e1-8974-217c6065d65d; session_id_welcome=127.0.0.1-d0ab36da-9c5d-467b-8971-bbd48f7b8c35; session_id_admin=127.0.0.1-e6236ed6-f403-42b0-952c-119f2f4561a7; session_id_manish_project_ecomplaint=127.0.0.1-6b4f64fc-b693-4885-8eb9-5642a662ff9d</div></td></tr><tr><td style="font-weight:bold;vertical-align:top;">http_host</td><td style="vertical-align:top;">:</td><td><div>127.0.0.1:8000</div></td></tr><tr><td style="font-weight:bold;vertical-align:top;">http_referer</td><td style="vertical-align:top;">:</td><td><div>http://127.0.0.1:8000/Manish_Project_eComplaint/default/user/register?_next=/Manish_Project_eComplaint/default/index</div></td></tr><tr><td style="font-weight:bold;vertical-align:top;">http_upgrade_insecure_requests</td><td style="vertical-align:top;">:</td><td><div>1</div></td></tr><tr><td style="font-weight:bold;vertical-align:top;">http_user_agent</td><td style="vertical-align:top;">:</td><td><div>Mozilla/5.0 (Windows NT 10.0; Win64; x64) AppleWebKit/537.36 (KHTML, like Gecko) Chrome/61.0.3163.100 Safari/537.36</div></td></tr><tr><td style="font-weight:bold;vertical-align:top;">is_jython</td><td style="vertical-align:top;">:</td><td><div>False</div></td></tr><tr><td style="font-weight:bold;vertical-align:top;">is_py2</td><td style="vertical-align:top;">:</td><td><div>True</div></td></tr><tr><td style="font-weight:bold;vertical-align:top;">is_pypy</td><td style="vertical-align:top;">:</td><td><div>False</div></td></tr><tr><td style="font-weight:bold;vertical-align:top;">is_source</td><td style="vertical-align:top;">:</td><td><div>True</div></td></tr><tr><td style="font-weight:bold;vertical-align:top;">local_hosts</td><td style="vertical-align:top;">:</td><td><div><table><tr><td><div>fe80::5c61:c182:70fe:597f%4</div></td></tr><tr><td><div>ManishLaptop</div></td></tr><tr><td><div>10.0.0.89</div></td></tr><tr><td><div>2601:241:8301:1097::8369</div></td></tr><tr><td><div>ManishLaptop.hsd1.il.comcast.net</div></td></tr><tr><td><div>2601:241:8301:1097:5c61:c182:70fe:597f</div></td></tr><tr><td><div>::ffff:127.0.0.1</div></td></tr><tr><td><div>::1</div></td></tr><tr><td><div>2601:241:8301:1097:80b8:6c3a:8a9d:ffd8</div></td></tr><tr><td><div>2001:0:9d38:6ab8:ce:3950:b6cc:370f</div></td></tr><tr><td><div>127.0.0.1</div></td></tr><tr><td><div>fe80::ce:3950:b6cc:370f%13</div></td></tr></table></div></td></tr><tr><td style="font-weight:bold;vertical-align:top;">path_info</td><td style="vertical-align:top;">:</td><td><div>/Manish_Project_eComplaint/default/crime_journalist</div></td></tr><tr><td style="font-weight:bold;vertical-align:top;">query_string</td><td style="vertical-align:top;">:</td><td><div></div></td></tr><tr><td style="font-weight:bold;vertical-align:top;">remote_addr</td><td style="vertical-align:top;">:</td><td><div>127.0.0.1</div></td></tr><tr><td style="font-weight:bold;vertical-align:top;">remote_port</td><td style="vertical-align:top;">:</td><td><div>50566</div></td></tr><tr><td style="font-weight:bold;vertical-align:top;">request_method</td><td style="vertical-align:top;">:</td><td><div>GET</div></td></tr><tr><td style="font-weight:bold;vertical-align:top;">request_uri</td><td style="vertical-align:top;">:</td><td><div>/Manish_Project_eComplaint/default/crime_journalist</div></td></tr><tr><td style="font-weight:bold;vertical-align:top;">script_name</td><td style="vertical-align:top;">:</td><td><div></div></td></tr><tr><td style="font-weight:bold;vertical-align:top;">server_name</td><td style="vertical-align:top;">:</td><td><div>ManishLaptop</div></td></tr><tr><td style="font-weight:bold;vertical-align:top;">server_port</td><td style="vertical-align:top;">:</td><td><div>8000</div></td></tr><tr><td style="font-weight:bold;vertical-align:top;">server_protocol</td><td style="vertical-align:top;">:</td><td><div>HTTP/1.1</div></td></tr><tr><td style="font-weight:bold;vertical-align:top;">server_software</td><td style="vertical-align:top;">:</td><td><div>Rocket 1.2.6</div></td></tr><tr><td style="font-weight:bold;vertical-align:top;">web2py_path</td><td style="vertical-align:top;">:</td><td><div>C:\\Users\\Manish Singh\\PycharmProjects\\ManishProject\\web2py</div></td></tr><tr><td style="font-weight:bold;vertical-align:top;">web2py_version</td><td style="vertical-align:top;">:</td><td><div>2.15.4-stable+timestamp.2017.09.02.04.02.22</div></td></tr><tr><td style="font-weight:bold;vertical-align:top;">wsgi.errors</td><td style="vertical-align:top;">:</td><td><div>&lt;open file &#x27;&lt;stderr&gt;&#x27;, mode &#x27;w&#x27; at 0x030AD0D0&gt;</div></td></tr><tr><td style="font-weight:bold;vertical-align:top;">wsgi.file_wrapper</td><td style="vertical-align:top;">:</td><td><div>&lt;class wsgiref.util.FileWrapper at 0x03F88180&gt;</div></td></tr><tr><td style="font-weight:bold;vertical-align:top;">wsgi.input</td><td style="vertical-align:top;">:</td><td><div>&lt;socket._fileobject object at 0x0ACDDD30&gt;</div></td></tr><tr><td style="font-weight:bold;vertical-align:top;">wsgi.multiprocess</td><td style="vertical-align:top;">:</td><td><div>False</div></td></tr><tr><td style="font-weight:bold;vertical-align:top;">wsgi.multithread</td><td style="vertical-align:top;">:</td><td><div>True</div></td></tr><tr><td style="font-weight:bold;vertical-align:top;">wsgi.run_once</td><td style="vertical-align:top;">:</td><td><div>False</div></td></tr><tr><td style="font-weight:bold;vertical-align:top;">wsgi.url_scheme</td><td style="vertical-align:top;">:</td><td><div>http</div></td></tr><tr><td style="font-weight:bold;vertical-align:top;">wsgi.version</td><td style="vertical-align:top;">:</td><td><div><table><tr><td><div>1</div></td></tr><tr><td><div>0</div></td></tr></table></div></td></tr><tr><td style="font-weight:bold;vertical-align:top;">wsgi_errors</td><td style="vertical-align:top;">:</td><td><div>&lt;open file &#x27;&lt;stderr&gt;&#x27;, mode &#x27;w&#x27; at 0x030AD0D0&gt;</div></td></tr><tr><td style="font-weight:bold;vertical-align:top;">wsgi_file_wrapper</td><td style="vertical-align:top;">:</td><td><div>&lt;class wsgiref.util.FileWrapper at 0x03F88180&gt;</div></td></tr><tr><td style="font-weight:bold;vertical-align:top;">wsgi_input</td><td style="vertical-align:top;">:</td><td><div>&lt;socket._fileobject object at 0x0ACDDD30&gt;</div></td></tr><tr><td style="font-weight:bold;vertical-align:top;">wsgi_multiprocess</td><td style="vertical-align:top;">:</td><td><div>False</div></td></tr><tr><td style="font-weight:bold;vertical-align:top;">wsgi_multithread</td><td style="vertical-align:top;">:</td><td><div>True</div></td></tr><tr><td style="font-weight:bold;vertical-align:top;">wsgi_run_once</td><td style="vertical-align:top;">:</td><td><div>False</div></td></tr><tr><td style="font-weight:bold;vertical-align:top;">wsgi_url_scheme</td><td style="vertical-align:top;">:</td><td><div>http</div></td></tr><tr><td style="font-weight:bold;vertical-align:top;">wsgi_version</td><td style="vertical-align:top;">:</td><td><div><table><tr><td><div>1</div></td></tr><tr><td><div>0</div></td></tr></table></div></td></tr></table></div></td></tr><tr><td style="font-weight:bold;vertical-align:top;">extension</td><td style="vertical-align:top;">:</td><td><div>html</div></td></tr><tr><td style="font-weight:bold;vertical-align:top;">folder</td><td style="vertical-align:top;">:</td><td><div>C:\\Users\\Manish Singh\\PycharmProjects\\ManishProject\\web2py\\applications\\Manish_Project_eComplaint\\</div></td></tr><tr><td style="font-weight:bold;vertical-align:top;">function</td><td style="vertical-align:top;">:</td><td><div>crime_journalist</div></td></tr><tr><td style="font-weight:bold;vertical-align:top;">global_settings</td><td style="vertical-align:top;">:</td><td><div><table><tr><td style="font-weight:bold;vertical-align:top;">app_folders</td><td style="vertical-align:top;">:</td><td><div>set([&#x27;C:\\\\Users\\\\Manish Singh\\\\PycharmProjects\\\\ManishProject\\\\web2py\\\\applications\\\\Manish_Project_eComplaint\\\\&#x27;, &#x27;C:\\\\Users\\\\Manish Singh\\\\PycharmProjects\\\\ManishProject\\\\web2py\\\\applications\\\\welcome\\\\&#x27;, &#x27;C:\\\\Users\\\\Manish Singh\\\\PycharmProjects\\\\ManishProject\\\\web2py\\\\applications\\\\admin\\\\&#x27;])</div></td></tr><tr><td style="font-weight:bold;vertical-align:top;">applications_parent</td><td style="vertical-align:top;">:</td><td><div>C:\\Users\\Manish Singh\\PycharmProjects\\ManishProject\\web2py</div></td></tr><tr><td style="font-weight:bold;vertical-align:top;">cmd_args</td><td style="vertical-align:top;">:</td><td><div><table></table></div></td></tr><tr><td style="font-weight:bold;vertical-align:top;">cmd_options</td><td style="vertical-align:top;">:</td><td><div>&lt;Values at 0x3fc2148: {&#x27;verbose&#x27;: False, &#x27;ip&#x27;: &#x27;127.0.0.1&#x27;, &#x27;debuglevel&#x27;: 30, &#x27;with_scheduler&#x27;: False, &#x27;shutdown_timeout&#x27;: 5, &#x27;taskbar&#x27;: False, &#x27;with_coverage&#x27;: False, &#x27;pid_filename&#x27;: &#x27;httpserver.pid&#x27;, &#x27;maxthreads&#x27;: None, &#x27;softcron&#x27;: False, &#x27;server_name&#x27;: &#x27;ManishLaptop&#x27;, &#x27;bpython&#x27;: False, &#x27;nogui&#x27;: False, &#x27;port&#x27;: 8000, &#x27;print_errors&#x27;: False, &#x27;extcron&#x27;: False, &#x27;runcron&#x27;: False, &#x27;run_system_tests&#x27;: False, &#x27;test&#x27;: None, &#x27;folder&#x27;: &#x27;C:\\\\Users\\\\Manish Singh\\\\PycharmProjects\\\\ManishProject\\\\web2py&#x27;, &#x27;config&#x27;: &#x27;&#x27;, &#x27;minthreads&#x27;: None, &#x27;shell&#x27;: None, &#x27;run&#x27;: &#x27;&#x27;, &#x27;log_filename&#x27;: &#x27;httpserver.log&#x27;, &#x27;profiler_dir&#x27;: None, &#x27;args&#x27;: [&#x27;&#x27;], &#x27;socket_timeout&#x27;: 5, &#x27;ssl_ca_certificate&#x27;: None, &#x27;scheduler&#x27;: None, &#x27;interfaces&#x27;: None, &#x27;ssl_private_key&#x27;: &#x27;&#x27;, &#x27;gae&#x27;: None, &#x27;password&#x27;: &#x27;******&#x27;, &#x27;request_queue_size&#x27;: 5, &#x27;ssl_certificate&#x27;: &#x27;&#x27;, &#x27;cronjob&#x27;: False, &#x27;numthreads&#x27;: None, &#x27;quiet&#x27;: False, &#x27;import_models&#x27;: False, &#x27;timeout&#x27;: 10, &#x27;plain&#x27;: False, &#x27;nobanner&#x27;: False}&gt;</div></td></tr><tr><td style="font-weight:bold;vertical-align:top;">db_sessions</td><td style="vertical-align:top;">:</td><td><div>set([])</div></td></tr><tr><td style="font-weight:bold;vertical-align:top;">debugging</td><td style="vertical-align:top;">:</td><td><div>True</div></td></tr><tr><td style="font-weight:bold;vertical-align:top;">gluon_parent</td><td style="vertical-align:top;">:</td><td><div>C:\\Users\\Manish Singh\\PycharmProjects\\ManishProject\\web2py</div></td></tr><tr><td style="font-weight:bold;vertical-align:top;">is_jython</td><td style="vertical-align:top;">:</td><td><div>False</div></td></tr><tr><td style="font-weight:bold;vertical-align:top;">is_py2</td><td style="vertical-align:top;">:</td><td><div>True</div></td></tr><tr><td style="font-weight:bold;vertical-align:top;">is_pypy</td><td style="vertical-align:top;">:</td><td><div>False</div></td></tr><tr><td style="font-weight:bold;vertical-align:top;">is_source</td><td style="vertical-align:top;">:</td><td><div>True</div></td></tr><tr><td style="font-weight:bold;vertical-align:top;">local_hosts</td><td style="vertical-align:top;">:</td><td><div><table><tr><td><div>fe80::5c61:c182:70fe:597f%4</div></td></tr><tr><td><div>ManishLaptop</div></td></tr><tr><td><div>10.0.0.89</div></td></tr><tr><td><div>2601:241:8301:1097::8369</div></td></tr><tr><td><div>ManishLaptop.hsd1.il.comcast.net</div></td></tr><tr><td><div>2601:241:8301:1097:5c61:c182:70fe:597f</div></td></tr><tr><td><div>::ffff:127.0.0.1</div></td></tr><tr><td><div>::1</div></td></tr><tr><td><div>2601:241:8301:1097:80b8:6c3a:8a9d:ffd8</div></td></tr><tr><td><div>2001:0:9d38:6ab8:ce:3950:b6cc:370f</div></td></tr><tr><td><div>127.0.0.1</div></td></tr><tr><td><div>fe80::ce:3950:b6cc:370f%13</div></td></tr></table></div></td></tr><tr><td style="font-weight:bold;vertical-align:top;">web2py_version</td><td style="vertical-align:top;">:</td><td><div>2.15.4-stable+timestamp.2017.09.02.04.02.22</div></td></tr></table></div></td></tr><tr><td style="font-weight:bold;vertical-align:top;">is_https</td><td style="vertical-align:top;">:</td><td><div>False</div></td></tr><tr><td style="font-weight:bold;vertical-align:top;">is_local</td><td style="vertical-align:top;">:</td><td><div>True</div></td></tr><tr><td style="font-weight:bold;vertical-align:top;">is_restful</td><td style="vertical-align:top;">:</td><td><div>False</div></td></tr><tr><td style="font-weight:bold;vertical-align:top;">is_scheduler</td><td style="vertical-align:top;">:</td><td><div>False</div></td></tr><tr><td style="font-weight:bold;vertical-align:top;">is_shell</td><td style="vertical-align:top;">:</td><td><div>False</div></td></tr><tr><td style="font-weight:bold;vertical-align:top;">now</td><td style="vertical-align:top;">:</td><td><div>datetime.datetime(2017, 11, 14, 13, 41, 41, 673000)</div></td></tr><tr><td style="font-weight:bold;vertical-align:top;">raw_args</td><td style="vertical-align:top;">:</td><td><div></div></td></tr><tr><td style="font-weight:bold;vertical-align:top;">raw_extension</td><td style="vertical-align:top;">:</td><td><div>None</div></td></tr><tr><td style="font-weight:bold;vertical-align:top;">url</td><td style="vertical-align:top;">:</td><td><div>/Manish_Project_eComplaint/default/crime_journalist</div></td></tr><tr><td style="font-weight:bold;vertical-align:top;">utcnow</td><td style="vertical-align:top;">:</td><td><div>datetime.datetime(2017, 11, 14, 19, 41, 41, 673000)</div></td></tr><tr><td style="font-weight:bold;vertical-align:top;">wsgi</td><td style="vertical-align:top;">:</td><td><div>&lt;gluon.main.LazyWSGI object at 0x0B0791F0&gt;</div></td></tr></table></div>'
tRp60
sS'frames'
p61
(lp62
(dp63
S'file'
p64
S'C:\\Users\\Manish Singh\\PycharmProjects\\ManishProject\\web2py\\gluon\\restricted.py'
p65
sS'dump'
p66
(dp67
S'environment'
p68
S"{'A': <class 'gluon.html.A'>, 'ANY_OF': <class 'gluon.validators.ANY_OF'>, 'ASSIGNJS': <function ASSIGNJS>, 'Auth': <class 'gluon.tools.Auth'>, 'B': <class 'gluon.html.B'>, 'BEAUTIFY': <class 'gluon.html.BEAUTIFY'>, 'BODY': <class 'gluon.html.BODY'>, 'BR': <class 'gluon.html.BR'>, 'BUTTON': <class 'gluon.html.BUTTON'>, 'CAT': <class 'gluon.html.CAT'>, ...}"
p69
sS'ccode'
p70
S'<code object <module> at 0B3A16E0, file "C:\\User...ject_eComplaint\\controllers/default.py", line 11>'
p71
ssS'lnum'
p72
I219
sS'lines'
p73
(dp74
I214
S'    if environment is None:'
p75
sI215
S'        environment = {}'
p76
sI216
S"    environment['__file__'] = layer"
p77
sI217
S"    environment['__name__'] = '__restricted__'"
p78
sI218
S'    try:'
p79
sI219
S'        exec(ccode, environment)'
p80
sI220
S'    except HTTP:'
p81
sI221
S'        raise'
p82
sI222
S'    except RestrictedError:'
p83
sI223
S'        # do not encapsulate (obfuscate) the original RestrictedError'
p84
ssS'call'
p85
S'(ccode=<code object <module> at 0B3A16E0, file "C:\\User...ject_eComplaint\\controllers/default.py", line 11>, environment={\'A\': <class \'gluon.html.A\'>, \'ANY_OF\': <class \'gluon.validators.ANY_OF\'>, \'ASSIGNJS\': <function ASSIGNJS>, \'Auth\': <class \'gluon.tools.Auth\'>, \'B\': <class \'gluon.html.B\'>, \'BEAUTIFY\': <class \'gluon.html.BEAUTIFY\'>, \'BODY\': <class \'gluon.html.BODY\'>, \'BR\': <class \'gluon.html.BR\'>, \'BUTTON\': <class \'gluon.html.BUTTON\'>, \'CAT\': <class \'gluon.html.CAT\'>, ...}, layer=r\'C:\\Users\\Manish Singh\\PycharmProjects\\ManishProj...\\Manish_Project_eComplaint\\controllers/default.py\', scode=<code object <module> at 0B3A16E0, file "C:\\User...ject_eComplaint\\controllers/default.py", line 11>)'
p86
sS'func'
p87
S'restricted'
p88
sa(dp89
g64
S'C:\\Users\\Manish Singh\\PycharmProjects\\ManishProject\\web2py\\applications\\Manish_Project_eComplaint\\controllers\\default.py'
p90
sg66
(dp91
sg72
I191
sg73
(dp92
I180
S'def call():'
p93
sI181
S'    """'
p94
sI182
S'    exposes services. for example:'
p95
sI183
S'    http://..../[app]/default/call/jsonrpc'
p96
sI184
S'    decorate with @services.jsonrpc the functions to expose'
p97
sI185
S'    supports xml, json, xmlrpc, jsonrpc, amfrpc, rss, csv'
p98
sI186
S'    """'
p99
sI187
S'    return service()'
p100
sI188
S''
sI189
S''
ssg85
S'()'
p101
sg87
S'<module>'
p102
sa(dp103
g64
S'C:\\Users\\Manish Singh\\PycharmProjects\\ManishProject\\web2py\\gluon\\globals.py'
p104
sg66
(dp105
S'self'
p106
S'undefined'
p107
sS'f'
S'<function crime_journalist>'
p108
ssg72
I414
sg73
(dp109
I416
S'        self._custom_commit = None'
p110
sI417
S'        self._custom_rollback = None'
p111
sI418
S"        self.generic_patterns = ['*']"
p112
sI409
S"        self.flash = ''            # used by the default view layout"
p113
sI410
S'        self.meta = Storage()      # used by web2py_ajax.html'
p114
sI411
S'        self.menu = []             # used by the default view layout'
p115
sI412
S'        self.files = []            # used by web2py_ajax.html'
p116
sI413
S'        self._vars = None'
p117
sI414
S'        self._caller = lambda f: f()'
p118
sI415
S'        self._view_environment = None'
p119
ssg85
S'(f=<function crime_journalist>)'
p120
sg87
S'<lambda>'
p121
sa(dp122
g64
S'C:\\Users\\Manish Singh\\PycharmProjects\\ManishProject\\web2py\\gluon\\tools.py'
p123
sg66
(dp124
S'action'
p125
S'<function crime_journalist>'
p126
sS'a'
S'()'
p127
sS'b'
g19
ssg72
I3981
sg73
(dp128
I3976
S'                    flag = condition'
p129
sI3977
S'                if not flag:'
p130
sI3978
S'                    current.session.flash = self.messages.access_denied'
p131
sI3979
S'                    return call_or_redirect('
p132
sI3980
S'                        self.settings.on_failed_authorization)'
p133
sI3981
S'                return action(*a, **b)'
p134
sI3982
S'            f.__doc__ = action.__doc__'
p135
sI3983
S'            f.__name__ = action.__name__'
p136
sI3984
S'            f.__dict__.update(action.__dict__)'
p137
sI3985
S'            return f'
p138
ssg85
S'(*a=(), **b={})'
p139
sg87
S'f'
sa(dp140
g64
S'C:\\Users\\Manish Singh\\PycharmProjects\\ManishProject\\web2py\\gluon\\tools.py'
p141
sg66
(dp142
S'action'
p143
S'<function crime_journalist>'
p144
sS'a'
S'()'
p145
sS'b'
g19
ssg72
I3981
sg73
(dp146
I3976
S'                    flag = condition'
p147
sI3977
S'                if not flag:'
p148
sI3978
S'                    current.session.flash = self.messages.access_denied'
p149
sI3979
S'                    return call_or_redirect('
p150
sI3980
S'                        self.settings.on_failed_authorization)'
p151
sI3981
S'                return action(*a, **b)'
p152
sI3982
S'            f.__doc__ = action.__doc__'
p153
sI3983
S'            f.__name__ = action.__name__'
p154
sI3984
S'            f.__dict__.update(action.__dict__)'
p155
sI3985
S'            return f'
p156
ssg85
S'(*a=(), **b={})'
p157
sg87
S'f'
sa(dp158
g64
S'C:\\Users\\Manish Singh\\PycharmProjects\\ManishProject\\web2py\\applications\\Manish_Project_eComplaint\\controllers\\default.py'
p159
sg66
(dp160
S'searchable'
p161
g107
sS'builtinFalse'
p162
S'False'
p163
sS'global SQLFORM'
p164
S"<class 'gluon.sqlhtml.SQLFORM'>"
p165
sS'editable'
p166
g107
sS'grid'
p167
g107
sS'global db'
p168
S'<DAL uri="sqlite://storage.sqlite">'
p169
sS'delatable'
p170
g107
sS'SQLFORM.smartgrid'
p171
S'<function smartgrid>'
p172
sS'csv'
p173
g107
sS'db.crime'
p174
S'<Table crime (id, crimetype, incidentdate, incid...reated_on, created_by, modified_on, modified_by)>'
p175
ssg72
I129
sg73
(dp176
I128
S'    db.crime.status.writable = False'
p177
sI129
S'    grid = SQLFORM.smartgrid(db.crime, csv=False, searchable = False, editable = False, delatable =  False)'
p178
sI130
S"    return{'form': form, 'grid':grid}"
p179
sI131
S''
sI132
S'def user():'
p180
sI133
S'    """'
p181
sI124
S'    db.crime.status.writable = False'
p182
sI125
S'    form = SQLFORM(db.crime, request.vars.id).process()'
p183
sI126
S"    #grid = crud.read(db.crime, '1')"
p184
sI127
S'    db.crime.status.readable = False'
p185
ssg85
S'()'
p186
sg87
S'crime_journalist'
p187
sa(dp188
g64
S'C:\\Users\\Manish Singh\\PycharmProjects\\ManishProject\\web2py\\gluon\\sqlhtml.py'
p189
sg66
(dp190
S'user_signature'
p191
S'True'
p192
sS'kwargs'
p193
S"{'csv': False, 'delatable': False, 'editable': False, 'searchable': False}"
p194
ssg72
I3235
sg73
(dp195
I3232
S'        links += linked'
p196
sI3233
S'        grid = SQLFORM.grid(query, args=request.args[:nargs], links=links,'
p197
sI3234
S'                            links_in_grid=links_in_grid,'
p198
sI3235
S'                            user_signature=user_signature, **kwargs)'
p199
sI3236
S''
sI3237
S'        if isinstance(grid, DIV):'
p200
sI3238
S'            header = table._plural'
p201
sI3239
S'            next = grid.create_form or grid.update_form or grid.view_form'
p202
sI3230
S'                                A(SPAN(t), cid=request.cid, _href=url('
p203
sI3231
S'                                    args=[args0, row[id_field_name]])))'
p204
ssg85
S"(table=<Table crime (id, crimetype, incidentdate, incid...reated_on, created_by, modified_on, modified_by)>, constraints={}, linked_tables=['auth_user', 'auth_group', 'auth_membership', '... 'auth_cas', 'policeman', 'crime', 'allzipcodes'], links=[], links_in_grid=True, args=[], user_signature=True, divider=u'\\xa0\\xa0>\\xa0\\xa0', breadcrumbs_class='', **kwargs={'csv': False, 'delatable': False, 'editable': False, 'searchable': False})"
p205
sg87
S'smartgrid'
p206
sasS'pyver'
p207
S'Python 2.7.14: C:\\Python27\\python.exe (prefix: C:\\Python27)'
p208
sS'session'
p209
g59
(S's\xd8\x0b\x00\x00<div><table><tr><td style="font-weight:bold;vertical-align:top;">auth</td><td style="vertical-align:top;">:</td><td><div><table><tr><td style="font-weight:bold;vertical-align:top;">expiration</td><td style="vertical-align:top;">:</td><td><div>3600</div></td></tr><tr><td style="font-weight:bold;vertical-align:top;">hmac_key</td><td style="vertical-align:top;">:</td><td><div>cb35d983-a7b1-477c-9560-5768800b4997</div></td></tr><tr><td style="font-weight:bold;vertical-align:top;">last_visit</td><td style="vertical-align:top;">:</td><td><div>datetime.datetime(2017, 11, 14, 13, 38, 33, 586000)</div></td></tr><tr><td style="font-weight:bold;vertical-align:top;">user</td><td style="vertical-align:top;">:</td><td><div><table><tr><td style="font-weight:bold;vertical-align:top;">created_by</td><td style="vertical-align:top;">:</td><td><div>None</div></td></tr><tr><td style="font-weight:bold;vertical-align:top;">created_on</td><td style="vertical-align:top;">:</td><td><div>datetime.datetime(2017, 11, 14, 13, 38, 33)</div></td></tr><tr><td style="font-weight:bold;vertical-align:top;">email</td><td style="vertical-align:top;">:</td><td><div>j1@j.com</div></td></tr><tr><td style="font-weight:bold;vertical-align:top;">first_name</td><td style="vertical-align:top;">:</td><td><div>Journalist</div></td></tr><tr><td style="font-weight:bold;vertical-align:top;">id</td><td style="vertical-align:top;">:</td><td><div>59L</div></td></tr><tr><td style="font-weight:bold;vertical-align:top;">is_active</td><td style="vertical-align:top;">:</td><td><div>True</div></td></tr><tr><td style="font-weight:bold;vertical-align:top;">last_name</td><td style="vertical-align:top;">:</td><td><div>Test</div></td></tr><tr><td style="font-weight:bold;vertical-align:top;">modified_by</td><td style="vertical-align:top;">:</td><td><div>None</div></td></tr><tr><td style="font-weight:bold;vertical-align:top;">modified_on</td><td style="vertical-align:top;">:</td><td><div>datetime.datetime(2017, 11, 14, 13, 38, 33)</div></td></tr><tr><td style="font-weight:bold;vertical-align:top;">registration_id</td><td style="vertical-align:top;">:</td><td><div></div></td></tr><tr><td style="font-weight:bold;vertical-align:top;">registration_key</td><td style="vertical-align:top;">:</td><td><div></div></td></tr><tr><td style="font-weight:bold;vertical-align:top;">reset_password_key</td><td style="vertical-align:top;">:</td><td><div></div></td></tr><tr><td style="font-weight:bold;vertical-align:top;">utype</td><td style="vertical-align:top;">:</td><td><div>Journalist</div></td></tr></table></div></td></tr><tr><td style="font-weight:bold;vertical-align:top;">user_groups</td><td style="vertical-align:top;">:</td><td><div><table><tr><td style="font-weight:bold;vertical-align:top;">62</td><td style="vertical-align:top;">:</td><td><div>user_59</div></td></tr></table></div></td></tr></table></div></td></tr><tr><td style="font-weight:bold;vertical-align:top;">flash</td><td style="vertical-align:top;">:</td><td><div>None</div></td></tr></table></div>'
tRp210
sS'etype'
p211
S"<type 'exceptions.TypeError'>"
p212
sS'date'
p213
S'Tue Nov 14 13:41:58 2017'
p214
sS'response'
p215
g59
(S's\xfa%\x00\x00<div><table><tr><td style="font-weight:bold;vertical-align:top;">body</td><td style="vertical-align:top;">:</td><td><div>&lt;cStringIO.StringO object at 0x0C036D80&gt;</div></td></tr><tr><td style="font-weight:bold;vertical-align:top;">cookies</td><td style="vertical-align:top;">:</td><td><div><table><tr><td style="font-weight:bold;vertical-align:top;">session_id_manish_project_ecomplaint</td><td style="vertical-align:top;">:</td><td><div>127.0.0.1-6b4f64fc-b693-4885-8eb9-5642a662ff9d<table><tr><td style="font-weight:bold;vertical-align:top;">comment</td><td style="vertical-align:top;">:</td><td><div></div></td></tr><tr><td style="font-weight:bold;vertical-align:top;">domain</td><td style="vertical-align:top;">:</td><td><div></div></td></tr><tr><td style="font-weight:bold;vertical-align:top;">expires</td><td style="vertical-align:top;">:</td><td><div></div></td></tr><tr><td style="font-weight:bold;vertical-align:top;">httponly</td><td style="vertical-align:top;">:</td><td><div></div></td></tr><tr><td style="font-weight:bold;vertical-align:top;">max-age</td><td style="vertical-align:top;">:</td><td><div></div></td></tr><tr><td style="font-weight:bold;vertical-align:top;">path</td><td style="vertical-align:top;">:</td><td><div>/</div></td></tr><tr><td style="font-weight:bold;vertical-align:top;">secure</td><td style="vertical-align:top;">:</td><td><div></div></td></tr><tr><td style="font-weight:bold;vertical-align:top;">version</td><td style="vertical-align:top;">:</td><td><div></div></td></tr></table></div></td></tr></table></div></td></tr><tr><td style="font-weight:bold;vertical-align:top;">delimiters</td><td style="vertical-align:top;">:</td><td><div><table><tr><td><div>{{</div></td></tr><tr><td><div>}}</div></td></tr></table></div></td></tr><tr><td style="font-weight:bold;vertical-align:top;">files</td><td style="vertical-align:top;">:</td><td><div><table></table></div></td></tr><tr><td style="font-weight:bold;vertical-align:top;">flash</td><td style="vertical-align:top;">:</td><td><div></div></td></tr><tr><td style="font-weight:bold;vertical-align:top;">form_label_separator</td><td style="vertical-align:top;">:</td><td><div>: </div></td></tr><tr><td style="font-weight:bold;vertical-align:top;">formstyle</td><td style="vertical-align:top;">:</td><td><div>table3cols</div></td></tr><tr><td style="font-weight:bold;vertical-align:top;">generic_patterns</td><td style="vertical-align:top;">:</td><td><div><table><tr><td><div>*</div></td></tr></table></div></td></tr><tr><td style="font-weight:bold;vertical-align:top;">google_analytics_id</td><td style="vertical-align:top;">:</td><td><div>None</div></td></tr><tr><td style="font-weight:bold;vertical-align:top;">headers</td><td style="vertical-align:top;">:</td><td><div><table><tr><td style="font-weight:bold;vertical-align:top;">X-Powered-By</td><td style="vertical-align:top;">:</td><td><div>web2py</div></td></tr></table></div></td></tr><tr><td style="font-weight:bold;vertical-align:top;">logo</td><td style="vertical-align:top;">:</td><td><div><a class="navbar-brand" href="http://www.web2py.com/" id="web2py-logo"><b>web<span>2</span>py</b>&trade;&nbsp;</a></div></td></tr><tr><td style="font-weight:bold;vertical-align:top;">menu</td><td style="vertical-align:top;">:</td><td><div><table><tr><td><div><table><tr><td><div>Home</div></td></tr><tr><td><div>False</div></td></tr><tr><td><div>/Manish_Project_eComplaint/default/index</div></td></tr><tr><td><div><table></table></div></td></tr></table></div></td></tr><tr><td><div><table><tr><td><div>My Sites</div></td></tr><tr><td><div>False</div></td></tr><tr><td><div>/admin/default/site</div></td></tr></table></div></td></tr><tr><td><div><table><tr><td><div>This App</div></td></tr><tr><td><div>False</div></td></tr><tr><td><div>#</div></td></tr><tr><td><div><table><tr><td><div><table><tr><td><div>Design</div></td></tr><tr><td><div>False</div></td></tr><tr><td><div>/admin/default/design/Manish_Project_eComplaint</div></td></tr></table></div></td></tr><tr><td><div><li class="divider"></li></div></td></tr><tr><td><div><table><tr><td><div>Controller</div></td></tr><tr><td><div>False</div></td></tr><tr><td><div>/admin/default/edit/Manish_Project_eComplaint/controllers/default.py</div></td></tr></table></div></td></tr><tr><td><div><table><tr><td><div>View</div></td></tr><tr><td><div>False</div></td></tr><tr><td><div>/admin/default/edit/Manish_Project_eComplaint/views/default/crime_journalist.html</div></td></tr></table></div></td></tr><tr><td><div><table><tr><td><div>DB Model</div></td></tr><tr><td><div>False</div></td></tr><tr><td><div>/admin/default/edit/Manish_Project_eComplaint/models/db.py</div></td></tr></table></div></td></tr><tr><td><div><table><tr><td><div>Menu Model</div></td></tr><tr><td><div>False</div></td></tr><tr><td><div>/admin/default/edit/Manish_Project_eComplaint/models/menu.py</div></td></tr></table></div></td></tr><tr><td><div><table><tr><td><div>Config.ini</div></td></tr><tr><td><div>False</div></td></tr><tr><td><div>/admin/default/edit/Manish_Project_eComplaint/private/appconfig.ini</div></td></tr></table></div></td></tr><tr><td><div><table><tr><td><div>Layout</div></td></tr><tr><td><div>False</div></td></tr><tr><td><div>/admin/default/edit/Manish_Project_eComplaint/views/layout.html</div></td></tr></table></div></td></tr><tr><td><div><table><tr><td><div>Stylesheet</div></td></tr><tr><td><div>False</div></td></tr><tr><td><div>/admin/default/edit/Manish_Project_eComplaint/static/css/web2py-bootstrap3.css</div></td></tr></table></div></td></tr><tr><td><div><table><tr><td><div>Database</div></td></tr><tr><td><div>False</div></td></tr><tr><td><div>/Manish_Project_eComplaint/appadmin/index</div></td></tr></table></div></td></tr><tr><td><div><table><tr><td><div>Errors</div></td></tr><tr><td><div>False</div></td></tr><tr><td><div>/admin/default/errors/Manish_Project_eComplaint</div></td></tr></table></div></td></tr><tr><td><div><table><tr><td><div>About</div></td></tr><tr><td><div>False</div></td></tr><tr><td><div>/admin/default/about/Manish_Project_eComplaint</div></td></tr></table></div></td></tr></table></div></td></tr></table></div></td></tr></table></div></td></tr><tr><td style="font-weight:bold;vertical-align:top;">meta</td><td style="vertical-align:top;">:</td><td><div><table></table></div></td></tr><tr><td style="font-weight:bold;vertical-align:top;">models_to_run</td><td style="vertical-align:top;">:</td><td><div><table><tr><td><div>^\\w+\\.py$</div></td></tr><tr><td><div>^default/\\w+\\.py$</div></td></tr><tr><td><div>^default/crime_journalist/\\w+\\.py$</div></td></tr></table></div></td></tr><tr><td style="font-weight:bold;vertical-align:top;">postprocessing</td><td style="vertical-align:top;">:</td><td><div><table></table></div></td></tr><tr><td style="font-weight:bold;vertical-align:top;">session_client</td><td style="vertical-align:top;">:</td><td><div>127.0.0.1</div></td></tr><tr><td style="font-weight:bold;vertical-align:top;">session_cookie_compression_level</td><td style="vertical-align:top;">:</td><td><div>None</div></td></tr><tr><td style="font-weight:bold;vertical-align:top;">session_cookie_expires</td><td style="vertical-align:top;">:</td><td><div>None</div></td></tr><tr><td style="font-weight:bold;vertical-align:top;">session_data_name</td><td style="vertical-align:top;">:</td><td><div>session_data_manish_project_ecomplaint</div></td></tr><tr><td style="font-weight:bold;vertical-align:top;">session_file</td><td style="vertical-align:top;">:</td><td><div>&lt;open file &#x27;C:\\\\Users\\\\Manish Singh\\\\PycharmProjects\\\\ManishProject\\\\web2py\\\\applications\\\\Manish_Project_eComplaint\\\\sessions\\\\17b\\\\09f\\\\127.0.0.1-6b4f64fc-b693-4885-8eb9-5642a662ff9d&#x27;, mode &#x27;rb+&#x27; at 0x0B1BA9C0&gt;</div></td></tr><tr><td style="font-weight:bold;vertical-align:top;">session_filename</td><td style="vertical-align:top;">:</td><td><div>C:\\Users\\Manish Singh\\PycharmProjects\\ManishProject\\web2py\\applications\\Manish_Project_eComplaint\\sessions\\127.0.0.1-6b4f64fc-b693-4885-8eb9-5642a662ff9d</div></td></tr><tr><td style="font-weight:bold;vertical-align:top;">session_hash</td><td style="vertical-align:top;">:</td><td><div>d588d26aca73f5aca41cbfb8b0729b43</div></td></tr><tr><td style="font-weight:bold;vertical-align:top;">session_id</td><td style="vertical-align:top;">:</td><td><div>127.0.0.1-6b4f64fc-b693-4885-8eb9-5642a662ff9d</div></td></tr><tr><td style="font-weight:bold;vertical-align:top;">session_id_name</td><td style="vertical-align:top;">:</td><td><div>session_id_manish_project_ecomplaint</div></td></tr><tr><td style="font-weight:bold;vertical-align:top;">session_locked</td><td style="vertical-align:top;">:</td><td><div>True</div></td></tr><tr><td style="font-weight:bold;vertical-align:top;">session_masterapp</td><td style="vertical-align:top;">:</td><td><div>Manish_Project_eComplaint</div></td></tr><tr><td style="font-weight:bold;vertical-align:top;">session_new</td><td style="vertical-align:top;">:</td><td><div>False</div></td></tr><tr><td style="font-weight:bold;vertical-align:top;">session_storage_type</td><td style="vertical-align:top;">:</td><td><div>file</div></td></tr><tr><td style="font-weight:bold;vertical-align:top;">status</td><td style="vertical-align:top;">:</td><td><div>200</div></td></tr><tr><td style="font-weight:bold;vertical-align:top;">subtitle</td><td style="vertical-align:top;">:</td><td><div></div></td></tr><tr><td style="font-weight:bold;vertical-align:top;">title</td><td style="vertical-align:top;">:</td><td><div>Manish Project Ecomplaint</div></td></tr><tr><td style="font-weight:bold;vertical-align:top;">view</td><td style="vertical-align:top;">:</td><td><div>default/crime_journalist.html</div></td></tr></table></div>'
tRp216
sS'locals'
p217
(dp218
S'links'
p219
S'[]'
p220
sS'query'
p221
S'<Query ("crime"."id" IS NOT NULL)>'
p222
sS'table'
p223
S'<Table crime (id, crimetype, incidentdate, incid...reated_on, created_by, modified_on, modified_by)>'
p224
sS'previous_id'
p225
S'None'
p226
sS'linked'
p227
S'[]'
p228
sS'previous_fieldname'
p229
S'None'
p230
sS'check'
p231
g19
sS'linked_tables'
p232
S"['auth_user', 'auth_group', 'auth_membership', '... 'auth_cas', 'policeman', 'crime', 'allzipcodes']"
p233
sS'field'
p234
S'None'
p235
sS'user_signature'
p236
g192
sS'kwargs'
p237
S"{'csv': False, 'delatable': False, 'editable': False, 'searchable': False}"
p238
sS'divider'
p239
S"u'\\xa0\\xa0>\\xa0\\xa0'"
p240
sS'id_field_name'
p241
S"'id'"
p242
sS'format'
p243
S'<function format>'
p244
sS'db'
p245
S'<DAL uri="sqlite://storage.sqlite">'
p246
sg44
S'[]'
p247
sS'nargs'
p248
S'1'
sS'T'
S'<gluon.languages.translator object>'
p249
sS'key'
p250
S"'use_cursor'"
p251
sS'links_in_grid'
p252
g192
sS'previous_tablename'
p253
S"'crime'"
p254
sS'name'
p255
S'None'
p256
sS'url'
p257
S'<function url>'
p258
sS'tb'
p259
S'None'
p260
sg58
S"<Storage {'_vars': <Storage {}>, 'function': 'cr...2py\\\\applications\\\\Manish_Project_eComplaint\\\\'}>"
p261
sS'breadcrumbs_class'
p262
S"''"
p263
sS'linked_fieldnames'
p264
S'[]'
p265
sS'item'
p266
S"'allzipcodes'"
p267
sS'breadcrumbs'
p268
S'[]'
p269
sS'constraints'
p270
g19
sssS'traceback'
p271
S'Traceback (most recent call last):\n  File "C:\\Users\\Manish Singh\\PycharmProjects\\ManishProject\\web2py\\gluon\\restricted.py", line 219, in restricted\n    exec(ccode, environment)\n  File "C:\\Users\\Manish Singh\\PycharmProjects\\ManishProject\\web2py\\applications\\Manish_Project_eComplaint\\controllers/default.py", line 191, in <module>\n  File "C:\\Users\\Manish Singh\\PycharmProjects\\ManishProject\\web2py\\gluon\\globals.py", line 414, in <lambda>\n    self._caller = lambda f: f()\n  File "C:\\Users\\Manish Singh\\PycharmProjects\\ManishProject\\web2py\\gluon\\tools.py", line 3981, in f\n    return action(*a, **b)\n  File "C:\\Users\\Manish Singh\\PycharmProjects\\ManishProject\\web2py\\gluon\\tools.py", line 3981, in f\n    return action(*a, **b)\n  File "C:\\Users\\Manish Singh\\PycharmProjects\\ManishProject\\web2py\\applications\\Manish_Project_eComplaint\\controllers/default.py", line 129, in crime_journalist\n    grid = SQLFORM.smartgrid(db.crime, csv=False, searchable = False, editable = False, delatable =  False)\n  File "C:\\Users\\Manish Singh\\PycharmProjects\\ManishProject\\web2py\\gluon\\sqlhtml.py", line 3235, in smartgrid\n    user_signature=user_signature, **kwargs)\nTypeError: grid() got an unexpected keyword argument \'delatable\'\n'
p272
s.