(dp1
S'output'
p2
S''
sS'layer'
p3
S'Framework'
p4
sS'code'
p5
S''
sS'snapshot'
p6
(dp7
S'exception'
p8
(dp9
S'__getslice__'
p10
S"<method-wrapper '__getslice__' of exceptions.SyntaxError object>"
p11
sS'text'
p12
S"'    ]\\n'"
p13
sS'__str__'
p14
S"<method-wrapper '__str__' of exceptions.SyntaxError object>"
p15
sS'__reduce__'
p16
S'<built-in method __reduce__ of exceptions.SyntaxError object>'
p17
sS'__dict__'
p18
S'{}'
p19
sS'__sizeof__'
p20
S'<built-in method __sizeof__ of exceptions.SyntaxError object>'
p21
sS'message'
p22
S"''"
p23
sS'__init__'
p24
S"<method-wrapper '__init__' of exceptions.SyntaxError object>"
p25
sS'__setattr__'
p26
S"<method-wrapper '__setattr__' of exceptions.SyntaxError object>"
p27
sS'__reduce_ex__'
p28
S'<built-in method __reduce_ex__ of exceptions.SyntaxError object>'
p29
sS'__new__'
p30
S'<built-in method __new__ of type object>'
p31
sS'__format__'
p32
S'<built-in method __format__ of exceptions.SyntaxError object>'
p33
sS'__class__'
p34
S"<type 'exceptions.SyntaxError'>"
p35
sS'filename'
p36
S"r'C:\\Users\\Manish Singh\\PycharmProjects\\ManishProj...ications\\Manish_Project_eComplaint\\models\\menu.py'"
p37
sS'lineno'
p38
S'55'
p39
sS'msg'
p40
S"'invalid syntax'"
p41
sS'__doc__'
p42
S"'Invalid syntax.'"
p43
sS'__getitem__'
p44
S"<method-wrapper '__getitem__' of exceptions.SyntaxError object>"
p45
sS'__setstate__'
p46
S'<built-in method __setstate__ of exceptions.SyntaxError object>'
p47
sS'__getattribute__'
p48
S"<method-wrapper '__getattribute__' of exceptions.SyntaxError object>"
p49
sS'print_file_and_line'
p50
S'None'
p51
sS'args'
p52
S"('invalid syntax', (r'C:\\Users\\Manish Singh\\PycharmProjects\\ManishProj...ications\\Manish_Project_eComplaint\\models\\menu.py', 55, 5, '    ]\\n'))"
p53
sS'__subclasshook__'
p54
S'<built-in method __subclasshook__ of type object>'
p55
sS'offset'
p56
S'5'
sS'__unicode__'
p57
S'<built-in method __unicode__ of exceptions.SyntaxError object>'
p58
sS'__delattr__'
p59
S"<method-wrapper '__delattr__' of exceptions.SyntaxError object>"
p60
sS'__repr__'
p61
S"<method-wrapper '__repr__' of exceptions.SyntaxError object>"
p62
sS'__hash__'
p63
S"<method-wrapper '__hash__' of exceptions.SyntaxError object>"
p64
ssS'evalue'
p65
S'invalid syntax (menu.py, line 55)'
p66
sS'request'
p67
cgluon.html
XML_unpickle
p68
(S's3b\x00\x00<div><table><tr><td style="font-weight:bold;vertical-align:top;">ajax</td><td style="vertical-align:top;">:</td><td><div>False</div></td></tr><tr><td style="font-weight:bold;vertical-align:top;">application</td><td style="vertical-align:top;">:</td><td><div>Manish_Project_eComplaint</div></td></tr><tr><td style="font-weight:bold;vertical-align:top;">args</td><td style="vertical-align:top;">:</td><td><div><table><tr><td><div>db</div></td></tr></table></div></td></tr><tr><td style="font-weight:bold;vertical-align:top;">cid</td><td style="vertical-align:top;">:</td><td><div>None</div></td></tr><tr><td style="font-weight:bold;vertical-align:top;">client</td><td style="vertical-align:top;">:</td><td><div>127.0.0.1</div></td></tr><tr><td style="font-weight:bold;vertical-align:top;">controller</td><td style="vertical-align:top;">:</td><td><div>appadmin</div></td></tr><tr><td style="font-weight:bold;vertical-align:top;">cookies</td><td style="vertical-align:top;">:</td><td><div><table><tr><td style="font-weight:bold;vertical-align:top;">session_id_admin</td><td style="vertical-align:top;">:</td><td><div>127.0.0.1-0e31949d-439c-4dcc-b7bd-8349bf5a9881<table><tr><td style="font-weight:bold;vertical-align:top;">comment</td><td style="vertical-align:top;">:</td><td><div></div></td></tr><tr><td style="font-weight:bold;vertical-align:top;">domain</td><td style="vertical-align:top;">:</td><td><div></div></td></tr><tr><td style="font-weight:bold;vertical-align:top;">expires</td><td style="vertical-align:top;">:</td><td><div></div></td></tr><tr><td style="font-weight:bold;vertical-align:top;">httponly</td><td style="vertical-align:top;">:</td><td><div></div></td></tr><tr><td style="font-weight:bold;vertical-align:top;">max-age</td><td style="vertical-align:top;">:</td><td><div></div></td></tr><tr><td style="font-weight:bold;vertical-align:top;">path</td><td style="vertical-align:top;">:</td><td><div></div></td></tr><tr><td style="font-weight:bold;vertical-align:top;">secure</td><td style="vertical-align:top;">:</td><td><div></div></td></tr><tr><td style="font-weight:bold;vertical-align:top;">version</td><td style="vertical-align:top;">:</td><td><div></div></td></tr></table></div></td></tr><tr><td style="font-weight:bold;vertical-align:top;">session_id_manish_project_ecomplaint</td><td style="vertical-align:top;">:</td><td><div>127.0.0.1-9ecc9abc-42df-4d17-94df-b13184cf73c7<table><tr><td style="font-weight:bold;vertical-align:top;">comment</td><td style="vertical-align:top;">:</td><td><div></div></td></tr><tr><td style="font-weight:bold;vertical-align:top;">domain</td><td style="vertical-align:top;">:</td><td><div></div></td></tr><tr><td style="font-weight:bold;vertical-align:top;">expires</td><td style="vertical-align:top;">:</td><td><div></div></td></tr><tr><td style="font-weight:bold;vertical-align:top;">httponly</td><td style="vertical-align:top;">:</td><td><div></div></td></tr><tr><td style="font-weight:bold;vertical-align:top;">max-age</td><td style="vertical-align:top;">:</td><td><div></div></td></tr><tr><td style="font-weight:bold;vertical-align:top;">path</td><td style="vertical-align:top;">:</td><td><div></div></td></tr><tr><td style="font-weight:bold;vertical-align:top;">secure</td><td style="vertical-align:top;">:</td><td><div></div></td></tr><tr><td style="font-weight:bold;vertical-align:top;">version</td><td style="vertical-align:top;">:</td><td><div></div></td></tr></table></div></td></tr><tr><td style="font-weight:bold;vertical-align:top;">session_id_welcome</td><td style="vertical-align:top;">:</td><td><div>127.0.0.1-b888b435-d2bf-4c7b-ac2d-9b0a797e09d8<table><tr><td style="font-weight:bold;vertical-align:top;">comment</td><td style="vertical-align:top;">:</td><td><div></div></td></tr><tr><td style="font-weight:bold;vertical-align:top;">domain</td><td style="vertical-align:top;">:</td><td><div></div></td></tr><tr><td style="font-weight:bold;vertical-align:top;">expires</td><td style="vertical-align:top;">:</td><td><div></div></td></tr><tr><td style="font-weight:bold;vertical-align:top;">httponly</td><td style="vertical-align:top;">:</td><td><div></div></td></tr><tr><td style="font-weight:bold;vertical-align:top;">max-age</td><td style="vertical-align:top;">:</td><td><div></div></td></tr><tr><td style="font-weight:bold;vertical-align:top;">path</td><td style="vertical-align:top;">:</td><td><div></div></td></tr><tr><td style="font-weight:bold;vertical-align:top;">secure</td><td style="vertical-align:top;">:</td><td><div></div></td></tr><tr><td style="font-weight:bold;vertical-align:top;">version</td><td style="vertical-align:top;">:</td><td><div></div></td></tr></table></div></td></tr></table></div></td></tr><tr><td style="font-weight:bold;vertical-align:top;">env</td><td style="vertical-align:top;">:</td><td><div><table><tr><td style="font-weight:bold;vertical-align:top;">HTTP_ACCEPT</td><td style="vertical-align:top;">:</td><td><div>text/html,application/xhtml+xml,application/xml;q=0.9,image/webp,image/apng,*/*;q=0.8</div></td></tr><tr><td style="font-weight:bold;vertical-align:top;">HTTP_ACCEPT_ENCODING</td><td style="vertical-align:top;">:</td><td><div>gzip, deflate, br</div></td></tr><tr><td style="font-weight:bold;vertical-align:top;">HTTP_ACCEPT_LANGUAGE</td><td style="vertical-align:top;">:</td><td><div>en-US,en;q=0.8</div></td></tr><tr><td style="font-weight:bold;vertical-align:top;">HTTP_CONNECTION</td><td style="vertical-align:top;">:</td><td><div>keep-alive</div></td></tr><tr><td style="font-weight:bold;vertical-align:top;">HTTP_COOKIE</td><td style="vertical-align:top;">:</td><td><div>session_id_welcome=127.0.0.1-b888b435-d2bf-4c7b-ac2d-9b0a797e09d8; session_id_admin=127.0.0.1-0e31949d-439c-4dcc-b7bd-8349bf5a9881; session_id_manish_project_ecomplaint=127.0.0.1-9ecc9abc-42df-4d17-94df-b13184cf73c7</div></td></tr><tr><td style="font-weight:bold;vertical-align:top;">HTTP_HOST</td><td style="vertical-align:top;">:</td><td><div>127.0.0.1:8000</div></td></tr><tr><td style="font-weight:bold;vertical-align:top;">HTTP_REFERER</td><td style="vertical-align:top;">:</td><td><div>http://127.0.0.1:8000/Manish_Project_eComplaint/appadmin/index</div></td></tr><tr><td style="font-weight:bold;vertical-align:top;">HTTP_UPGRADE_INSECURE_REQUESTS</td><td style="vertical-align:top;">:</td><td><div>1</div></td></tr><tr><td style="font-weight:bold;vertical-align:top;">HTTP_USER_AGENT</td><td style="vertical-align:top;">:</td><td><div>Mozilla/5.0 (Windows NT 10.0; Win64; x64) AppleWebKit/537.36 (KHTML, like Gecko) Chrome/61.0.3163.100 Safari/537.36</div></td></tr><tr><td style="font-weight:bold;vertical-align:top;">PATH_INFO</td><td style="vertical-align:top;">:</td><td><div>/Manish_Project_eComplaint/appadmin/select/db</div></td></tr><tr><td style="font-weight:bold;vertical-align:top;">QUERY_STRING</td><td style="vertical-align:top;">:</td><td><div>query=db.crime.id%3E0</div></td></tr><tr><td style="font-weight:bold;vertical-align:top;">REMOTE_ADDR</td><td style="vertical-align:top;">:</td><td><div>127.0.0.1</div></td></tr><tr><td style="font-weight:bold;vertical-align:top;">REMOTE_PORT</td><td style="vertical-align:top;">:</td><td><div>50532</div></td></tr><tr><td style="font-weight:bold;vertical-align:top;">REQUEST_METHOD</td><td style="vertical-align:top;">:</td><td><div>GET</div></td></tr><tr><td style="font-weight:bold;vertical-align:top;">SCRIPT_NAME</td><td style="vertical-align:top;">:</td><td><div></div></td></tr><tr><td style="font-weight:bold;vertical-align:top;">SERVER_NAME</td><td style="vertical-align:top;">:</td><td><div>ManishLaptop</div></td></tr><tr><td style="font-weight:bold;vertical-align:top;">SERVER_PORT</td><td style="vertical-align:top;">:</td><td><div>8000</div></td></tr><tr><td style="font-weight:bold;vertical-align:top;">SERVER_PROTOCOL</td><td style="vertical-align:top;">:</td><td><div>HTTP/1.1</div></td></tr><tr><td style="font-weight:bold;vertical-align:top;">SERVER_SOFTWARE</td><td style="vertical-align:top;">:</td><td><div>Rocket 1.2.6</div></td></tr><tr><td style="font-weight:bold;vertical-align:top;">app_folders</td><td style="vertical-align:top;">:</td><td><div>set([&#x27;C:\\\\Users\\\\Manish Singh\\\\PycharmProjects\\\\ManishProject\\\\web2py\\\\applications\\\\Manish_Project_eComplaint\\\\&#x27;, &#x27;C:\\\\Users\\\\Manish Singh\\\\PycharmProjects\\\\ManishProject\\\\web2py\\\\applications\\\\welcome\\\\&#x27;, &#x27;C:\\\\Users\\\\Manish Singh\\\\PycharmProjects\\\\ManishProject\\\\web2py\\\\applications\\\\admin\\\\&#x27;])</div></td></tr><tr><td style="font-weight:bold;vertical-align:top;">applications_parent</td><td style="vertical-align:top;">:</td><td><div>C:\\Users\\Manish Singh\\PycharmProjects\\ManishProject\\web2py</div></td></tr><tr><td style="font-weight:bold;vertical-align:top;">cmd_args</td><td style="vertical-align:top;">:</td><td><div><table></table></div></td></tr><tr><td style="font-weight:bold;vertical-align:top;">cmd_options</td><td style="vertical-align:top;">:</td><td><div>&lt;Values at 0x3c02148: {&#x27;verbose&#x27;: False, &#x27;ip&#x27;: &#x27;127.0.0.1&#x27;, &#x27;debuglevel&#x27;: 30, &#x27;with_scheduler&#x27;: False, &#x27;shutdown_timeout&#x27;: 5, &#x27;taskbar&#x27;: False, &#x27;with_coverage&#x27;: False, &#x27;pid_filename&#x27;: &#x27;httpserver.pid&#x27;, &#x27;maxthreads&#x27;: None, &#x27;softcron&#x27;: False, &#x27;server_name&#x27;: &#x27;ManishLaptop&#x27;, &#x27;bpython&#x27;: False, &#x27;nogui&#x27;: False, &#x27;port&#x27;: 8000, &#x27;print_errors&#x27;: False, &#x27;extcron&#x27;: False, &#x27;runcron&#x27;: False, &#x27;run_system_tests&#x27;: False, &#x27;test&#x27;: None, &#x27;folder&#x27;: &#x27;C:\\\\Users\\\\Manish Singh\\\\PycharmProjects\\\\ManishProject\\\\web2py&#x27;, &#x27;config&#x27;: &#x27;&#x27;, &#x27;minthreads&#x27;: None, &#x27;shell&#x27;: None, &#x27;run&#x27;: &#x27;&#x27;, &#x27;log_filename&#x27;: &#x27;httpserver.log&#x27;, &#x27;profiler_dir&#x27;: None, &#x27;args&#x27;: [&#x27;&#x27;], &#x27;socket_timeout&#x27;: 5, &#x27;ssl_ca_certificate&#x27;: None, &#x27;scheduler&#x27;: None, &#x27;interfaces&#x27;: None, &#x27;ssl_private_key&#x27;: &#x27;&#x27;, &#x27;gae&#x27;: None, &#x27;password&#x27;: &#x27;******&#x27;, &#x27;request_queue_size&#x27;: 5, &#x27;ssl_certificate&#x27;: &#x27;&#x27;, &#x27;cronjob&#x27;: False, &#x27;numthreads&#x27;: None, &#x27;quiet&#x27;: False, &#x27;import_models&#x27;: False, &#x27;timeout&#x27;: 10, &#x27;plain&#x27;: False, &#x27;nobanner&#x27;: False}&gt;</div></td></tr><tr><td style="font-weight:bold;vertical-align:top;">db_sessions</td><td style="vertical-align:top;">:</td><td><div>set([])</div></td></tr><tr><td style="font-weight:bold;vertical-align:top;">debugging</td><td style="vertical-align:top;">:</td><td><div>False</div></td></tr><tr><td style="font-weight:bold;vertical-align:top;">gluon_parent</td><td style="vertical-align:top;">:</td><td><div>C:\\Users\\Manish Singh\\PycharmProjects\\ManishProject\\web2py</div></td></tr><tr><td style="font-weight:bold;vertical-align:top;">http_accept</td><td style="vertical-align:top;">:</td><td><div>text/html,application/xhtml+xml,application/xml;q=0.9,image/webp,image/apng,*/*;q=0.8</div></td></tr><tr><td style="font-weight:bold;vertical-align:top;">http_accept_encoding</td><td style="vertical-align:top;">:</td><td><div>gzip, deflate, br</div></td></tr><tr><td style="font-weight:bold;vertical-align:top;">http_accept_language</td><td style="vertical-align:top;">:</td><td><div>en-US,en;q=0.8</div></td></tr><tr><td style="font-weight:bold;vertical-align:top;">http_connection</td><td style="vertical-align:top;">:</td><td><div>keep-alive</div></td></tr><tr><td style="font-weight:bold;vertical-align:top;">http_cookie</td><td style="vertical-align:top;">:</td><td><div>session_id_welcome=127.0.0.1-b888b435-d2bf-4c7b-ac2d-9b0a797e09d8; session_id_admin=127.0.0.1-0e31949d-439c-4dcc-b7bd-8349bf5a9881; session_id_manish_project_ecomplaint=127.0.0.1-9ecc9abc-42df-4d17-94df-b13184cf73c7</div></td></tr><tr><td style="font-weight:bold;vertical-align:top;">http_host</td><td style="vertical-align:top;">:</td><td><div>127.0.0.1:8000</div></td></tr><tr><td style="font-weight:bold;vertical-align:top;">http_referer</td><td style="vertical-align:top;">:</td><td><div>http://127.0.0.1:8000/Manish_Project_eComplaint/appadmin/index</div></td></tr><tr><td style="font-weight:bold;vertical-align:top;">http_upgrade_insecure_requests</td><td style="vertical-align:top;">:</td><td><div>1</div></td></tr><tr><td style="font-weight:bold;vertical-align:top;">http_user_agent</td><td style="vertical-align:top;">:</td><td><div>Mozilla/5.0 (Windows NT 10.0; Win64; x64) AppleWebKit/537.36 (KHTML, like Gecko) Chrome/61.0.3163.100 Safari/537.36</div></td></tr><tr><td style="font-weight:bold;vertical-align:top;">is_jython</td><td style="vertical-align:top;">:</td><td><div>False</div></td></tr><tr><td style="font-weight:bold;vertical-align:top;">is_py2</td><td style="vertical-align:top;">:</td><td><div>True</div></td></tr><tr><td style="font-weight:bold;vertical-align:top;">is_pypy</td><td style="vertical-align:top;">:</td><td><div>False</div></td></tr><tr><td style="font-weight:bold;vertical-align:top;">is_source</td><td style="vertical-align:top;">:</td><td><div>True</div></td></tr><tr><td style="font-weight:bold;vertical-align:top;">local_hosts</td><td style="vertical-align:top;">:</td><td><div><table><tr><td><div>fe80::5c61:c182:70fe:597f%4</div></td></tr><tr><td><div>ManishLaptop</div></td></tr><tr><td><div>10.0.0.89</div></td></tr><tr><td><div>2601:241:8301:1097::8369</div></td></tr><tr><td><div>ManishLaptop.hsd1.il.comcast.net</div></td></tr><tr><td><div>2601:241:8301:1097:5c61:c182:70fe:597f</div></td></tr><tr><td><div>::ffff:127.0.0.1</div></td></tr><tr><td><div>::1</div></td></tr><tr><td><div>2601:241:8301:1097:11be:6ad:2626:bb84</div></td></tr><tr><td><div>127.0.0.1</div></td></tr></table></div></td></tr><tr><td style="font-weight:bold;vertical-align:top;">path_info</td><td style="vertical-align:top;">:</td><td><div>/Manish_Project_eComplaint/appadmin/select/db</div></td></tr><tr><td style="font-weight:bold;vertical-align:top;">query_string</td><td style="vertical-align:top;">:</td><td><div>query=db.crime.id%3E0</div></td></tr><tr><td style="font-weight:bold;vertical-align:top;">remote_addr</td><td style="vertical-align:top;">:</td><td><div>127.0.0.1</div></td></tr><tr><td style="font-weight:bold;vertical-align:top;">remote_port</td><td style="vertical-align:top;">:</td><td><div>50532</div></td></tr><tr><td style="font-weight:bold;vertical-align:top;">request_method</td><td style="vertical-align:top;">:</td><td><div>GET</div></td></tr><tr><td style="font-weight:bold;vertical-align:top;">request_uri</td><td style="vertical-align:top;">:</td><td><div>/Manish_Project_eComplaint/appadmin/select/db?query=db.crime.id%3E0</div></td></tr><tr><td style="font-weight:bold;vertical-align:top;">script_name</td><td style="vertical-align:top;">:</td><td><div></div></td></tr><tr><td style="font-weight:bold;vertical-align:top;">server_name</td><td style="vertical-align:top;">:</td><td><div>ManishLaptop</div></td></tr><tr><td style="font-weight:bold;vertical-align:top;">server_port</td><td style="vertical-align:top;">:</td><td><div>8000</div></td></tr><tr><td style="font-weight:bold;vertical-align:top;">server_protocol</td><td style="vertical-align:top;">:</td><td><div>HTTP/1.1</div></td></tr><tr><td style="font-weight:bold;vertical-align:top;">server_software</td><td style="vertical-align:top;">:</td><td><div>Rocket 1.2.6</div></td></tr><tr><td style="font-weight:bold;vertical-align:top;">web2py_path</td><td style="vertical-align:top;">:</td><td><div>C:\\Users\\Manish Singh\\PycharmProjects\\ManishProject\\web2py</div></td></tr><tr><td style="font-weight:bold;vertical-align:top;">web2py_version</td><td style="vertical-align:top;">:</td><td><div>2.15.4-stable+timestamp.2017.09.02.04.02.22</div></td></tr><tr><td style="font-weight:bold;vertical-align:top;">wsgi.errors</td><td style="vertical-align:top;">:</td><td><div>&lt;open file &#x27;&lt;stderr&gt;&#x27;, mode &#x27;w&#x27; at 0x02C7D0D0&gt;</div></td></tr><tr><td style="font-weight:bold;vertical-align:top;">wsgi.file_wrapper</td><td style="vertical-align:top;">:</td><td><div>&lt;class wsgiref.util.FileWrapper at 0x03BC8180&gt;</div></td></tr><tr><td style="font-weight:bold;vertical-align:top;">wsgi.input</td><td style="vertical-align:top;">:</td><td><div>&lt;socket._fileobject object at 0x0A81ECF0&gt;</div></td></tr><tr><td style="font-weight:bold;vertical-align:top;">wsgi.multiprocess</td><td style="vertical-align:top;">:</td><td><div>False</div></td></tr><tr><td style="font-weight:bold;vertical-align:top;">wsgi.multithread</td><td style="vertical-align:top;">:</td><td><div>True</div></td></tr><tr><td style="font-weight:bold;vertical-align:top;">wsgi.run_once</td><td style="vertical-align:top;">:</td><td><div>False</div></td></tr><tr><td style="font-weight:bold;vertical-align:top;">wsgi.url_scheme</td><td style="vertical-align:top;">:</td><td><div>http</div></td></tr><tr><td style="font-weight:bold;vertical-align:top;">wsgi.version</td><td style="vertical-align:top;">:</td><td><div><table><tr><td><div>1</div></td></tr><tr><td><div>0</div></td></tr></table></div></td></tr><tr><td style="font-weight:bold;vertical-align:top;">wsgi_errors</td><td style="vertical-align:top;">:</td><td><div>&lt;open file &#x27;&lt;stderr&gt;&#x27;, mode &#x27;w&#x27; at 0x02C7D0D0&gt;</div></td></tr><tr><td style="font-weight:bold;vertical-align:top;">wsgi_file_wrapper</td><td style="vertical-align:top;">:</td><td><div>&lt;class wsgiref.util.FileWrapper at 0x03BC8180&gt;</div></td></tr><tr><td style="font-weight:bold;vertical-align:top;">wsgi_input</td><td style="vertical-align:top;">:</td><td><div>&lt;socket._fileobject object at 0x0A81ECF0&gt;</div></td></tr><tr><td style="font-weight:bold;vertical-align:top;">wsgi_multiprocess</td><td style="vertical-align:top;">:</td><td><div>False</div></td></tr><tr><td style="font-weight:bold;vertical-align:top;">wsgi_multithread</td><td style="vertical-align:top;">:</td><td><div>True</div></td></tr><tr><td style="font-weight:bold;vertical-align:top;">wsgi_run_once</td><td style="vertical-align:top;">:</td><td><div>False</div></td></tr><tr><td style="font-weight:bold;vertical-align:top;">wsgi_url_scheme</td><td style="vertical-align:top;">:</td><td><div>http</div></td></tr><tr><td style="font-weight:bold;vertical-align:top;">wsgi_version</td><td style="vertical-align:top;">:</td><td><div><table><tr><td><div>1</div></td></tr><tr><td><div>0</div></td></tr></table></div></td></tr></table></div></td></tr><tr><td style="font-weight:bold;vertical-align:top;">extension</td><td style="vertical-align:top;">:</td><td><div>html</div></td></tr><tr><td style="font-weight:bold;vertical-align:top;">folder</td><td style="vertical-align:top;">:</td><td><div>C:\\Users\\Manish Singh\\PycharmProjects\\ManishProject\\web2py\\applications\\Manish_Project_eComplaint\\</div></td></tr><tr><td style="font-weight:bold;vertical-align:top;">function</td><td style="vertical-align:top;">:</td><td><div>select</div></td></tr><tr><td style="font-weight:bold;vertical-align:top;">global_settings</td><td style="vertical-align:top;">:</td><td><div><table><tr><td style="font-weight:bold;vertical-align:top;">app_folders</td><td style="vertical-align:top;">:</td><td><div>set([&#x27;C:\\\\Users\\\\Manish Singh\\\\PycharmProjects\\\\ManishProject\\\\web2py\\\\applications\\\\Manish_Project_eComplaint\\\\&#x27;, &#x27;C:\\\\Users\\\\Manish Singh\\\\PycharmProjects\\\\ManishProject\\\\web2py\\\\applications\\\\welcome\\\\&#x27;, &#x27;C:\\\\Users\\\\Manish Singh\\\\PycharmProjects\\\\ManishProject\\\\web2py\\\\applications\\\\admin\\\\&#x27;])</div></td></tr><tr><td style="font-weight:bold;vertical-align:top;">applications_parent</td><td style="vertical-align:top;">:</td><td><div>C:\\Users\\Manish Singh\\PycharmProjects\\ManishProject\\web2py</div></td></tr><tr><td style="font-weight:bold;vertical-align:top;">cmd_args</td><td style="vertical-align:top;">:</td><td><div><table></table></div></td></tr><tr><td style="font-weight:bold;vertical-align:top;">cmd_options</td><td style="vertical-align:top;">:</td><td><div>&lt;Values at 0x3c02148: {&#x27;verbose&#x27;: False, &#x27;ip&#x27;: &#x27;127.0.0.1&#x27;, &#x27;debuglevel&#x27;: 30, &#x27;with_scheduler&#x27;: False, &#x27;shutdown_timeout&#x27;: 5, &#x27;taskbar&#x27;: False, &#x27;with_coverage&#x27;: False, &#x27;pid_filename&#x27;: &#x27;httpserver.pid&#x27;, &#x27;maxthreads&#x27;: None, &#x27;softcron&#x27;: False, &#x27;server_name&#x27;: &#x27;ManishLaptop&#x27;, &#x27;bpython&#x27;: False, &#x27;nogui&#x27;: False, &#x27;port&#x27;: 8000, &#x27;print_errors&#x27;: False, &#x27;extcron&#x27;: False, &#x27;runcron&#x27;: False, &#x27;run_system_tests&#x27;: False, &#x27;test&#x27;: None, &#x27;folder&#x27;: &#x27;C:\\\\Users\\\\Manish Singh\\\\PycharmProjects\\\\ManishProject\\\\web2py&#x27;, &#x27;config&#x27;: &#x27;&#x27;, &#x27;minthreads&#x27;: None, &#x27;shell&#x27;: None, &#x27;run&#x27;: &#x27;&#x27;, &#x27;log_filename&#x27;: &#x27;httpserver.log&#x27;, &#x27;profiler_dir&#x27;: None, &#x27;args&#x27;: [&#x27;&#x27;], &#x27;socket_timeout&#x27;: 5, &#x27;ssl_ca_certificate&#x27;: None, &#x27;scheduler&#x27;: None, &#x27;interfaces&#x27;: None, &#x27;ssl_private_key&#x27;: &#x27;&#x27;, &#x27;gae&#x27;: None, &#x27;password&#x27;: &#x27;******&#x27;, &#x27;request_queue_size&#x27;: 5, &#x27;ssl_certificate&#x27;: &#x27;&#x27;, &#x27;cronjob&#x27;: False, &#x27;numthreads&#x27;: None, &#x27;quiet&#x27;: False, &#x27;import_models&#x27;: False, &#x27;timeout&#x27;: 10, &#x27;plain&#x27;: False, &#x27;nobanner&#x27;: False}&gt;</div></td></tr><tr><td style="font-weight:bold;vertical-align:top;">db_sessions</td><td style="vertical-align:top;">:</td><td><div>set([])</div></td></tr><tr><td style="font-weight:bold;vertical-align:top;">debugging</td><td style="vertical-align:top;">:</td><td><div>False</div></td></tr><tr><td style="font-weight:bold;vertical-align:top;">gluon_parent</td><td style="vertical-align:top;">:</td><td><div>C:\\Users\\Manish Singh\\PycharmProjects\\ManishProject\\web2py</div></td></tr><tr><td style="font-weight:bold;vertical-align:top;">is_jython</td><td style="vertical-align:top;">:</td><td><div>False</div></td></tr><tr><td style="font-weight:bold;vertical-align:top;">is_py2</td><td style="vertical-align:top;">:</td><td><div>True</div></td></tr><tr><td style="font-weight:bold;vertical-align:top;">is_pypy</td><td style="vertical-align:top;">:</td><td><div>False</div></td></tr><tr><td style="font-weight:bold;vertical-align:top;">is_source</td><td style="vertical-align:top;">:</td><td><div>True</div></td></tr><tr><td style="font-weight:bold;vertical-align:top;">local_hosts</td><td style="vertical-align:top;">:</td><td><div><table><tr><td><div>fe80::5c61:c182:70fe:597f%4</div></td></tr><tr><td><div>ManishLaptop</div></td></tr><tr><td><div>10.0.0.89</div></td></tr><tr><td><div>2601:241:8301:1097::8369</div></td></tr><tr><td><div>ManishLaptop.hsd1.il.comcast.net</div></td></tr><tr><td><div>2601:241:8301:1097:5c61:c182:70fe:597f</div></td></tr><tr><td><div>::ffff:127.0.0.1</div></td></tr><tr><td><div>::1</div></td></tr><tr><td><div>2601:241:8301:1097:11be:6ad:2626:bb84</div></td></tr><tr><td><div>127.0.0.1</div></td></tr></table></div></td></tr><tr><td style="font-weight:bold;vertical-align:top;">web2py_version</td><td style="vertical-align:top;">:</td><td><div>2.15.4-stable+timestamp.2017.09.02.04.02.22</div></td></tr></table></div></td></tr><tr><td style="font-weight:bold;vertical-align:top;">is_https</td><td style="vertical-align:top;">:</td><td><div>False</div></td></tr><tr><td style="font-weight:bold;vertical-align:top;">is_local</td><td style="vertical-align:top;">:</td><td><div>True</div></td></tr><tr><td style="font-weight:bold;vertical-align:top;">is_restful</td><td style="vertical-align:top;">:</td><td><div>False</div></td></tr><tr><td style="font-weight:bold;vertical-align:top;">is_scheduler</td><td style="vertical-align:top;">:</td><td><div>False</div></td></tr><tr><td style="font-weight:bold;vertical-align:top;">is_shell</td><td style="vertical-align:top;">:</td><td><div>False</div></td></tr><tr><td style="font-weight:bold;vertical-align:top;">now</td><td style="vertical-align:top;">:</td><td><div>datetime.datetime(2017, 11, 15, 19, 35, 40, 899000)</div></td></tr><tr><td style="font-weight:bold;vertical-align:top;">raw_args</td><td style="vertical-align:top;">:</td><td><div>db</div></td></tr><tr><td style="font-weight:bold;vertical-align:top;">raw_extension</td><td style="vertical-align:top;">:</td><td><div>None</div></td></tr><tr><td style="font-weight:bold;vertical-align:top;">url</td><td style="vertical-align:top;">:</td><td><div>/Manish_Project_eComplaint/appadmin/select/db</div></td></tr><tr><td style="font-weight:bold;vertical-align:top;">utcnow</td><td style="vertical-align:top;">:</td><td><div>datetime.datetime(2017, 11, 16, 1, 35, 40, 899000)</div></td></tr><tr><td style="font-weight:bold;vertical-align:top;">wsgi</td><td style="vertical-align:top;">:</td><td><div>&lt;gluon.main.LazyWSGI object at 0x0B288E30&gt;</div></td></tr></table></div>'
tRp69
sS'frames'
p70
(lp71
(dp72
S'file'
p73
S'C:\\Users\\Manish Singh\\PycharmProjects\\ManishProject\\web2py\\gluon\\main.py'
p74
sS'dump'
p75
(dp76
S'global serve_controller'
p77
S'<function serve_controller>'
p78
sS'session'
p79
S"<Storage {'_formkey[policeman/create]': ['731eab...efeec', '8a76cf72-2eb6-45f3-b471-984d30c0a4ee']}>"
p80
sS'request'
p81
S"<Storage {'_vars': None, 'function': 'select', '...2py\\\\applications\\\\Manish_Project_eComplaint\\\\'}>"
p82
sS'response'
p83
S"<Storage {'body': <cStringIO.StringO object at 0... at 0x0A81ED30>, 'view': 'appadmin/select.html'}>"
p84
ssS'lnum'
p85
I445
sS'lines'
p86
(dp87
I448
S''
sI449
S'                if static_file:'
p88
sI440
S'                if global_settings.debugging and app != "admin":'
p89
sI441
S'                    import gluon.debug'
p90
sI442
S'                    # activate the debugger'
p91
sI443
S'                    gluon.debug.dbg.do_debug(mainpyfile=request.folder)'
p92
sI444
S''
sI445
S'                serve_controller(request, response, session)'
p93
sI446
S'            except HTTP as hr:'
p94
sI447
S'                http_response = hr'
p95
ssS'call'
p96
S"(environ={'HTTP_ACCEPT': 'text/html,application/xhtml+xml,application/xml;q=0.9,image/webp,image/apng,*/*;q=0.8', 'HTTP_ACCEPT_ENCODING': 'gzip, deflate, br', 'HTTP_ACCEPT_LANGUAGE': 'en-US,en;q=0.8', 'HTTP_CONNECTION': 'keep-alive', 'HTTP_COOKIE': 'session_id_welcome=127.0.0.1-b888b435-d2bf-4c7b-...nt=127.0.0.1-9ecc9abc-42df-4d17-94df-b13184cf73c7', 'HTTP_HOST': '127.0.0.1:8000', 'HTTP_REFERER': 'http://127.0.0.1:8000/Manish_Project_eComplaint/appadmin/index', 'HTTP_UPGRADE_INSECURE_REQUESTS': '1', 'HTTP_USER_AGENT': 'Mozilla/5.0 (Windows NT 10.0; Win64; x64) AppleW...L, like Gecko) Chrome/61.0.3163.100 Safari/537.36', 'PATH_INFO': '/Manish_Project_eComplaint/appadmin/select/db', ...}, responder=<function responder2>)"
p97
sS'func'
p98
S'wsgibase'
p99
sa(dp100
g73
S'C:\\Users\\Manish Singh\\PycharmProjects\\ManishProject\\web2py\\gluon\\main.py'
p101
sg75
(dp102
S'environment'
p103
S"{'A': <class 'gluon.html.A'>, 'ANY_OF': <class 'gluon.validators.ANY_OF'>, 'ASSIGNJS': <function ASSIGNJS>, 'Auth': <class 'gluon.tools.Auth'>, 'B': <class 'gluon.html.B'>, 'BEAUTIFY': <class 'gluon.html.BEAUTIFY'>, 'BODY': <class 'gluon.html.BODY'>, 'BR': <class 'gluon.html.BR'>, 'BUTTON': <class 'gluon.html.BUTTON'>, 'CAT': <class 'gluon.html.CAT'>, ...}"
p104
sS'global run_models_in'
p105
S'<function run_models_in>'
p106
ssg85
I178
sg86
(dp107
I173
S'    # also, make sure the flash is passed through'
p108
sI174
S'    # ##################################################'
p109
sI175
S'    # process models, controller and view (if required)'
p110
sI176
S'    # ##################################################'
p111
sI177
S''
sI178
S'    run_models_in(environment)'
p112
sI179
S'    response._view_environment = copy.copy(environment)'
p113
sI180
S'    page = run_controller_in(request.controller, request.function, environment)'
p114
sI181
S'    if isinstance(page, dict):'
p115
sI182
S'        response._vars = page'
p116
ssg96
S"(request=<Storage {'_vars': None, 'function': 'select', '...2py\\\\applications\\\\Manish_Project_eComplaint\\\\'}>, response=<Storage {'body': <cStringIO.StringO object at 0... at 0x0A81ED30>, 'view': 'appadmin/select.html'}>, session=<Storage {'_formkey[policeman/create]': ['731eab...efeec', '8a76cf72-2eb6-45f3-b471-984d30c0a4ee']}>)"
p117
sg98
S'serve_controller'
p118
sa(dp119
g73
S'C:\\Users\\Manish Singh\\PycharmProjects\\ManishProject\\web2py\\gluon\\compileapp.py'
p120
sg75
(dp121
S'global getcfs'
p122
S'<function getcfs>'
p123
sS'model'
p124
S"r'C:\\Users\\Manish Singh\\PycharmProjects\\ManishProj...ications\\Manish_Project_eComplaint\\models\\menu.py'"
p125
sS'ccode'
p126
S'<code object <module> at 0AD23A88, file "C:\\User...\\Manish_Project_eComplaint\\models\\db.py", line 1>'
p127
sS'f'
S'<function <lambda>>'
p128
ssg85
I592
sg86
(dp129
I587
S'                continue'
p130
sI588
S'            elif compiled:'
p131
sI589
S'                f = lambda: read_pyc(model)'
p132
sI590
S'            else:'
p133
sI591
S'                f = lambda: compile2(read_file(model), model)'
p134
sI592
S'            ccode = getcfs(model, model, f)'
p135
sI593
S'            restricted(ccode, environment, layer=model)'
p136
sI594
S''
sI595
S''
sI596
S'def run_controller_in(controller, function, environment):'
p137
ssg96
S"(environment={'A': <class 'gluon.html.A'>, 'ANY_OF': <class 'gluon.validators.ANY_OF'>, 'ASSIGNJS': <function ASSIGNJS>, 'Auth': <class 'gluon.tools.Auth'>, 'B': <class 'gluon.html.B'>, 'BEAUTIFY': <class 'gluon.html.BEAUTIFY'>, 'BODY': <class 'gluon.html.BODY'>, 'BR': <class 'gluon.html.BR'>, 'BUTTON': <class 'gluon.html.BUTTON'>, 'CAT': <class 'gluon.html.CAT'>, ...})"
p138
sg98
S'run_models_in'
p139
sa(dp140
g73
S'C:\\Users\\Manish Singh\\PycharmProjects\\ManishProject\\web2py\\gluon\\cfs.py'
p141
sg75
(dp142
S'filter'
p143
S'<function <lambda>>'
p144
sS'data'
p145
S'undefined'
p146
ssg85
I50
sg86
(dp147
I45
S'    if item and item[0] == t:'
p148
sI46
S'        return item[1]'
p149
sI47
S'    if not callable(filter):'
p150
sI48
S'        data = read_file(filename)'
p151
sI49
S'    else:'
p152
sI50
S'        data = filter()'
p153
sI51
S'    cfs_lock.acquire()'
p154
sI52
S'    cfs[key] = (t, data)'
p155
sI53
S'    cfs_lock.release()'
p156
sI54
S'    return data'
p157
ssg96
S"(key=r'C:\\Users\\Manish Singh\\PycharmProjects\\ManishProj...ications\\Manish_Project_eComplaint\\models\\menu.py', filename=r'C:\\Users\\Manish Singh\\PycharmProjects\\ManishProj...ications\\Manish_Project_eComplaint\\models\\menu.py', filter=<function <lambda>>)"
p158
sg98
S'getcfs'
p159
sa(dp160
g73
S'C:\\Users\\Manish Singh\\PycharmProjects\\ManishProject\\web2py\\gluon\\compileapp.py'
p161
sg75
(dp162
S'global read_file'
p163
S'<function read_file>'
p164
sS'model'
p165
S"r'C:\\Users\\Manish Singh\\PycharmProjects\\ManishProj...ications\\Manish_Project_eComplaint\\models\\menu.py'"
p166
sS'global compile2'
p167
S'<function compile2>'
p168
sS'f'
g146
ssg85
I591
sg86
(dp169
I586
S"            if not regex.search(fname) and c != 'appadmin':"
p170
sI587
S'                continue'
p171
sI588
S'            elif compiled:'
p172
sI589
S'                f = lambda: read_pyc(model)'
p173
sI590
S'            else:'
p174
sI591
S'                f = lambda: compile2(read_file(model), model)'
p175
sI592
S'            ccode = getcfs(model, model, f)'
p176
sI593
S'            restricted(ccode, environment, layer=model)'
p177
sI594
S''
sI595
S''
ssg96
S'()'
p178
sg98
S'<lambda>'
p179
sa(dp180
g73
S'C:\\Users\\Manish Singh\\PycharmProjects\\ManishProject\\web2py\\gluon\\restricted.py'
p181
sg75
(dp182
S'builtincompile'
p183
S'<built-in function compile>'
p184
sS'code'
p185
S'\'# -*- coding: utf-8 -*-\\n# this file is released ... _()\\n\\nif "auth" in locals():\\n    auth.wikimenu()\\n\''
p186
sS'layer'
p187
S"r'C:\\Users\\Manish Singh\\PycharmProjects\\ManishProj...ications\\Manish_Project_eComplaint\\models\\menu.py'"
p188
ssg85
I205
sg86
(dp189
I200
S'            output = ""'
p190
sI201
S'        return output'
p191
sI202
S''
sI203
S''
sI204
S'def compile2(code, layer):'
p192
sI205
S"    return compile(code, layer, 'exec')"
p193
sI206
S''
sI207
S''
sI208
S"def restricted(ccode, environment=None, layer='Unknown', scode=None):"
p194
sI209
S'    """'
p195
ssg96
S'(code=\'# -*- coding: utf-8 -*-\\n# this file is released ... _()\\n\\nif "auth" in locals():\\n    auth.wikimenu()\\n\', layer=r\'C:\\Users\\Manish Singh\\PycharmProjects\\ManishProj...ications\\Manish_Project_eComplaint\\models\\menu.py\')'
p196
sg98
S'compile2'
p197
sasS'pyver'
p198
S'Python 2.7.14: C:\\Python27\\python.exe (prefix: C:\\Python27)'
p199
sS'session'
p200
g68
(S's\xef\x0c\x00\x00<div><table><tr><td style="font-weight:bold;vertical-align:top;">auth</td><td style="vertical-align:top;">:</td><td><div><table><tr><td style="font-weight:bold;vertical-align:top;">expiration</td><td style="vertical-align:top;">:</td><td><div>3600</div></td></tr><tr><td style="font-weight:bold;vertical-align:top;">hmac_key</td><td style="vertical-align:top;">:</td><td><div>54d15f99-eae3-4ac8-bd3d-cebd7e657914</div></td></tr><tr><td style="font-weight:bold;vertical-align:top;">last_visit</td><td style="vertical-align:top;">:</td><td><div>datetime.datetime(2017, 11, 15, 19, 30, 35, 33000)</div></td></tr><tr><td style="font-weight:bold;vertical-align:top;">user</td><td style="vertical-align:top;">:</td><td><div><table><tr><td style="font-weight:bold;vertical-align:top;">created_by</td><td style="vertical-align:top;">:</td><td><div>None</div></td></tr><tr><td style="font-weight:bold;vertical-align:top;">created_on</td><td style="vertical-align:top;">:</td><td><div>datetime.datetime(2017, 11, 15, 18, 41, 8)</div></td></tr><tr><td style="font-weight:bold;vertical-align:top;">email</td><td style="vertical-align:top;">:</td><td><div>hh@hh111.com</div></td></tr><tr><td style="font-weight:bold;vertical-align:top;">first_name</td><td style="vertical-align:top;">:</td><td><div>Ru</div></td></tr><tr><td style="font-weight:bold;vertical-align:top;">id</td><td style="vertical-align:top;">:</td><td><div>60L</div></td></tr><tr><td style="font-weight:bold;vertical-align:top;">is_active</td><td style="vertical-align:top;">:</td><td><div>True</div></td></tr><tr><td style="font-weight:bold;vertical-align:top;">last_name</td><td style="vertical-align:top;">:</td><td><div>user</div></td></tr><tr><td style="font-weight:bold;vertical-align:top;">modified_by</td><td style="vertical-align:top;">:</td><td><div>None</div></td></tr><tr><td style="font-weight:bold;vertical-align:top;">modified_on</td><td style="vertical-align:top;">:</td><td><div>datetime.datetime(2017, 11, 15, 18, 41, 8)</div></td></tr><tr><td style="font-weight:bold;vertical-align:top;">registration_id</td><td style="vertical-align:top;">:</td><td><div></div></td></tr><tr><td style="font-weight:bold;vertical-align:top;">registration_key</td><td style="vertical-align:top;">:</td><td><div></div></td></tr><tr><td style="font-weight:bold;vertical-align:top;">reset_password_key</td><td style="vertical-align:top;">:</td><td><div></div></td></tr><tr><td style="font-weight:bold;vertical-align:top;">utype</td><td style="vertical-align:top;">:</td><td><div>Regular User</div></td></tr></table></div></td></tr><tr><td style="font-weight:bold;vertical-align:top;">user_groups</td><td style="vertical-align:top;">:</td><td><div><table><tr><td style="font-weight:bold;vertical-align:top;">63</td><td style="vertical-align:top;">:</td><td><div>user_60</div></td></tr></table></div></td></tr></table></div></td></tr><tr><td style="font-weight:bold;vertical-align:top;">flash</td><td style="vertical-align:top;">:</td><td><div>None</div></td></tr><tr><td style="font-weight:bold;vertical-align:top;">last_orderby</td><td style="vertical-align:top;">:</td><td><div>None</div></td></tr><tr><td style="font-weight:bold;vertical-align:top;">last_query</td><td style="vertical-align:top;">:</td><td><div>db.crime.id&gt;0</div></td></tr></table></div>'
tRp201
sS'etype'
p202
S"<type 'exceptions.SyntaxError'>"
p203
sS'date'
p204
S'Wed Nov 15 19:35:42 2017'
p205
sS'response'
p206
g68
(S's!\x18\x00\x00<div><table><tr><td style="font-weight:bold;vertical-align:top;">body</td><td style="vertical-align:top;">:</td><td><div>&lt;cStringIO.StringO object at 0x0B179280&gt;</div></td></tr><tr><td style="font-weight:bold;vertical-align:top;">cookies</td><td style="vertical-align:top;">:</td><td><div><table><tr><td style="font-weight:bold;vertical-align:top;">session_id_manish_project_ecomplaint</td><td style="vertical-align:top;">:</td><td><div>127.0.0.1-9ecc9abc-42df-4d17-94df-b13184cf73c7<table><tr><td style="font-weight:bold;vertical-align:top;">comment</td><td style="vertical-align:top;">:</td><td><div></div></td></tr><tr><td style="font-weight:bold;vertical-align:top;">domain</td><td style="vertical-align:top;">:</td><td><div></div></td></tr><tr><td style="font-weight:bold;vertical-align:top;">expires</td><td style="vertical-align:top;">:</td><td><div></div></td></tr><tr><td style="font-weight:bold;vertical-align:top;">httponly</td><td style="vertical-align:top;">:</td><td><div></div></td></tr><tr><td style="font-weight:bold;vertical-align:top;">max-age</td><td style="vertical-align:top;">:</td><td><div></div></td></tr><tr><td style="font-weight:bold;vertical-align:top;">path</td><td style="vertical-align:top;">:</td><td><div>/</div></td></tr><tr><td style="font-weight:bold;vertical-align:top;">secure</td><td style="vertical-align:top;">:</td><td><div></div></td></tr><tr><td style="font-weight:bold;vertical-align:top;">version</td><td style="vertical-align:top;">:</td><td><div></div></td></tr></table></div></td></tr></table></div></td></tr><tr><td style="font-weight:bold;vertical-align:top;">delimiters</td><td style="vertical-align:top;">:</td><td><div><table><tr><td><div>{{</div></td></tr><tr><td><div>}}</div></td></tr></table></div></td></tr><tr><td style="font-weight:bold;vertical-align:top;">files</td><td style="vertical-align:top;">:</td><td><div><table></table></div></td></tr><tr><td style="font-weight:bold;vertical-align:top;">flash</td><td style="vertical-align:top;">:</td><td><div></div></td></tr><tr><td style="font-weight:bold;vertical-align:top;">form_label_separator</td><td style="vertical-align:top;">:</td><td><div>: </div></td></tr><tr><td style="font-weight:bold;vertical-align:top;">formstyle</td><td style="vertical-align:top;">:</td><td><div>table3cols</div></td></tr><tr><td style="font-weight:bold;vertical-align:top;">generic_patterns</td><td style="vertical-align:top;">:</td><td><div><table><tr><td><div>*</div></td></tr></table></div></td></tr><tr><td style="font-weight:bold;vertical-align:top;">headers</td><td style="vertical-align:top;">:</td><td><div><table><tr><td style="font-weight:bold;vertical-align:top;">X-Powered-By</td><td style="vertical-align:top;">:</td><td><div>web2py</div></td></tr></table></div></td></tr><tr><td style="font-weight:bold;vertical-align:top;">menu</td><td style="vertical-align:top;">:</td><td><div><table></table></div></td></tr><tr><td style="font-weight:bold;vertical-align:top;">meta</td><td style="vertical-align:top;">:</td><td><div><table></table></div></td></tr><tr><td style="font-weight:bold;vertical-align:top;">models_to_run</td><td style="vertical-align:top;">:</td><td><div><table><tr><td><div>^\\w+\\.py$</div></td></tr><tr><td><div>^appadmin/\\w+\\.py$</div></td></tr><tr><td><div>^appadmin/select/\\w+\\.py$</div></td></tr></table></div></td></tr><tr><td style="font-weight:bold;vertical-align:top;">postprocessing</td><td style="vertical-align:top;">:</td><td><div><table></table></div></td></tr><tr><td style="font-weight:bold;vertical-align:top;">session_client</td><td style="vertical-align:top;">:</td><td><div>127.0.0.1</div></td></tr><tr><td style="font-weight:bold;vertical-align:top;">session_cookie_compression_level</td><td style="vertical-align:top;">:</td><td><div>None</div></td></tr><tr><td style="font-weight:bold;vertical-align:top;">session_cookie_expires</td><td style="vertical-align:top;">:</td><td><div>None</div></td></tr><tr><td style="font-weight:bold;vertical-align:top;">session_data_name</td><td style="vertical-align:top;">:</td><td><div>session_data_manish_project_ecomplaint</div></td></tr><tr><td style="font-weight:bold;vertical-align:top;">session_file</td><td style="vertical-align:top;">:</td><td><div>&lt;open file &#x27;C:\\\\Users\\\\Manish Singh\\\\PycharmProjects\\\\ManishProject\\\\web2py\\\\applications\\\\Manish_Project_eComplaint\\\\sessions\\\\0a9\\\\049\\\\127.0.0.1-9ecc9abc-42df-4d17-94df-b13184cf73c7&#x27;, mode &#x27;rb+&#x27; at 0x0A83B700&gt;</div></td></tr><tr><td style="font-weight:bold;vertical-align:top;">session_filename</td><td style="vertical-align:top;">:</td><td><div>C:\\Users\\Manish Singh\\PycharmProjects\\ManishProject\\web2py\\applications\\Manish_Project_eComplaint\\sessions\\127.0.0.1-9ecc9abc-42df-4d17-94df-b13184cf73c7</div></td></tr><tr><td style="font-weight:bold;vertical-align:top;">session_hash</td><td style="vertical-align:top;">:</td><td><div>0eb6fead2594b21f1ac890935e354138</div></td></tr><tr><td style="font-weight:bold;vertical-align:top;">session_id</td><td style="vertical-align:top;">:</td><td><div>127.0.0.1-9ecc9abc-42df-4d17-94df-b13184cf73c7</div></td></tr><tr><td style="font-weight:bold;vertical-align:top;">session_id_name</td><td style="vertical-align:top;">:</td><td><div>session_id_manish_project_ecomplaint</div></td></tr><tr><td style="font-weight:bold;vertical-align:top;">session_locked</td><td style="vertical-align:top;">:</td><td><div>True</div></td></tr><tr><td style="font-weight:bold;vertical-align:top;">session_masterapp</td><td style="vertical-align:top;">:</td><td><div>Manish_Project_eComplaint</div></td></tr><tr><td style="font-weight:bold;vertical-align:top;">session_new</td><td style="vertical-align:top;">:</td><td><div>False</div></td></tr><tr><td style="font-weight:bold;vertical-align:top;">session_storage_type</td><td style="vertical-align:top;">:</td><td><div>file</div></td></tr><tr><td style="font-weight:bold;vertical-align:top;">status</td><td style="vertical-align:top;">:</td><td><div>200</div></td></tr><tr><td style="font-weight:bold;vertical-align:top;">view</td><td style="vertical-align:top;">:</td><td><div>appadmin/select.html</div></td></tr></table></div>'
tRp207
sS'locals'
p208
(dp209
g3
S"r'C:\\Users\\Manish Singh\\PycharmProjects\\ManishProj...ications\\Manish_Project_eComplaint\\models\\menu.py'"
p210
sg5
S'\'# -*- coding: utf-8 -*-\\n# this file is released ... _()\\n\\nif "auth" in locals():\\n    auth.wikimenu()\\n\''
p211
sssS'traceback'
p212
S'Traceback (most recent call last):\n  File "C:\\Users\\Manish Singh\\PycharmProjects\\ManishProject\\web2py\\gluon\\main.py", line 445, in wsgibase\n    serve_controller(request, response, session)\n  File "C:\\Users\\Manish Singh\\PycharmProjects\\ManishProject\\web2py\\gluon\\main.py", line 178, in serve_controller\n    run_models_in(environment)\n  File "C:\\Users\\Manish Singh\\PycharmProjects\\ManishProject\\web2py\\gluon\\compileapp.py", line 592, in run_models_in\n    ccode = getcfs(model, model, f)\n  File "C:\\Users\\Manish Singh\\PycharmProjects\\ManishProject\\web2py\\gluon\\cfs.py", line 50, in getcfs\n    data = filter()\n  File "C:\\Users\\Manish Singh\\PycharmProjects\\ManishProject\\web2py\\gluon\\compileapp.py", line 591, in <lambda>\n    f = lambda: compile2(read_file(model), model)\n  File "C:\\Users\\Manish Singh\\PycharmProjects\\ManishProject\\web2py\\gluon\\restricted.py", line 205, in compile2\n    return compile(code, layer, \'exec\')\n  File "C:\\Users\\Manish Singh\\PycharmProjects\\ManishProject\\web2py\\applications\\Manish_Project_eComplaint\\models\\menu.py", line 55\n    ]\n    ^\nSyntaxError: invalid syntax\n'
p213
s.